Certificate Revocation List (CRL):
        Version 2 (0x1)
    Signature Algorithm: sha256WithRSAEncryption
        Issuer: /C=US/ST=Montana/L=Bozeman/O=wolfSSL_2048/OU=Programming-2048/CN=www.wolfssl.com/emailAddress=info@wolfssl.com
        Last Update: Jul  4 04:39:23 2021 GMT
        Next Update: Mar 30 04:39:23 2024 GMT
        CRL extensions:
            X509v3 CRL Number: 
                6
Revoked Certificates:
    Serial Number: 02
        Revocation Date: Jul  4 04:39:23 2021 GMT
    Signature Algorithm: sha256WithRSAEncryption
         27:4a:02:3b:ce:22:b7:68:a1:90:71:56:5a:c7:84:54:da:eb:
         4c:5b:24:95:ba:e5:46:1d:ac:10:ba:b4:e2:12:cf:77:9c:d1:
         80:6e:15:01:95:86:17:ae:7f:52:24:1a:05:05:40:2f:cf:86:
         e4:e8:00:e2:9b:cc:c9:9e:3d:ac:e2:fd:2f:db:ea:aa:fa:30:
         44:cc:0e:2a:96:9f:9b:c8:f9:fc:ad:cf:bf:5f:02:ba:16:a7:
         9a:3d:dc:76:1c:2b:7b:e4:11:7d:c9:1f:62:c5:ff:44:a0:76:
         8e:87:7a:53:21:f3:8c:0b:54:41:fc:10:8a:40:7a:35:e4:7f:
         d3:23:d5:a1:e2:18:94:5f:dd:ef:9b:23:05:6f:bb:83:40:5b:
         1b:81:c9:15:a0:f0:ce:71:df:96:03:21:ff:92:2f:89:d1:cd:
         0a:d4:d1:38:e0:36:ed:3f:48:cd:64:55:46:ef:8c:b3:31:b1:
         74:d6:36:2c:9a:03:cb:11:1a:ed:b2:84:be:bb:a0:c2:b0:40:
         86:47:ac:09:45:7f:bb:2e:4b:0d:75:2e:0c:fc:95:8c:ae:9a:
         06:82:87:6a:a1:ed:b6:df:14:d0:01:95:cc:03:63:d8:3c:7d:
         d8:c8:21:59:45:21:ad:d3:36:4f:39:c2:ab:e2:16:e8:8b:44:
         c1:41:78:4e
-----BEGIN X509 CRL-----
MIICDjCB9wIBATANBgkqhkiG9w0BAQsFADCBnjELMAkGA1UEBhMCVVMxEDAOBgNV
BAgMB01vbnRhbmExEDAOBgNVBAcMB0JvemVtYW4xFTATBgNVBAoMDHdvbGZTU0xf
MjA0ODEZMBcGA1UECwwQUHJvZ3JhbW1pbmctMjA0ODEYMBYGA1UEAwwPd3d3Lndv
bGZzc2wuY29tMR8wHQYJKoZIhvcNAQkBFhBpbmZvQHdvbGZzc2wuY29tFw0yMTA3
MDQwNDM5MjNaFw0yNDAzMzAwNDM5MjNaMBQwEgIBAhcNMjEwNzA0MDQzOTIzWqAO
MAwwCgYDVR0UBAMCAQYwDQYJKoZIhvcNAQELBQADggEBACdKAjvOIrdooZBxVlrH
hFTa60xbJJW65UYdrBC6tOISz3ec0YBuFQGVhheuf1IkGgUFQC/PhuToAOKbzMme
Pazi/S/b6qr6METMDiqWn5vI+fytz79fAroWp5o93HYcK3vkEX3JH2LF/0Sgdo6H
elMh84wLVEH8EIpAejXkf9Mj1aHiGJRf3e+bIwVvu4NAWxuByRWg8M5x35YDIf+S
L4nRzQrU0TjgNu0/SM1kVUbvjLMxsXTWNiyaA8sRGu2yhL67oMKwQIZHrAlFf7su
Sw11Lgz8lYyumgaCh2qh7bbfFNABlcwDY9g8fdjIIVlFIa3TNk85wqviFuiLRMFB
eE4=
-----END X509 CRL-----
