Certificate Revocation List (CRL):
        Version 2 (0x1)
    Signature Algorithm: sha256WithRSAEncryption
        Issuer: /C=US/ST=Montana/L=Bozeman/O=wolfSSL_2048/OU=Programming-2048/CN=www.wolfssl.com/emailAddress=info@wolfssl.com
        Last Update: Jan 26 23:38:03 2023 GMT
        Next Update: Oct 22 23:38:03 2025 GMT
        CRL extensions:
            X509v3 CRL Number: 
                5
Revoked Certificates:
    Serial Number: 02
        Revocation Date: Jan 26 23:38:03 2023 GMT
    Signature Algorithm: sha256WithRSAEncryption
         b8:e6:3a:2f:ba:f0:3f:bd:17:a0:5c:43:ec:f8:3c:79:d5:f6:
         0c:98:14:d4:50:d0:a7:a0:73:6e:4d:da:cf:8f:cf:8f:04:9b:
         df:31:1f:ec:25:02:80:be:c0:a6:91:7e:a8:3c:bb:06:a0:34:
         ed:d4:a4:de:4b:ff:da:b7:70:a5:ab:67:9a:d7:b7:94:c2:37:
         81:f2:7c:15:be:f9:87:15:c5:05:ba:62:94:6b:a9:bb:24:11:
         46:44:80:56:ce:21:e3:4b:93:35:3a:62:49:23:43:e7:c2:a3:
         0e:44:06:59:02:67:ae:41:94:ec:de:4f:46:5b:17:df:39:ad:
         b8:20:b5:9b:d0:12:bf:a9:70:30:c1:56:95:94:68:d8:b6:55:
         57:1b:fc:76:72:b5:74:f9:a7:ef:06:bf:0b:da:6d:ab:ae:62:
         c9:44:9b:34:68:20:8f:7e:7b:9c:61:1b:9e:1f:af:71:c5:3d:
         3a:e3:a3:99:fe:59:35:f0:8d:04:6d:70:21:69:fa:29:e7:8e:
         bc:81:77:17:0d:44:0e:40:1b:63:75:d1:a1:f3:a6:08:03:7a:
         01:4e:44:33:9f:e5:1c:63:a2:ba:f4:45:e7:d6:48:34:a8:27:
         37:38:0e:6c:7e:10:4e:3c:ef:dc:6d:a9:2b:6d:7c:7c:d7:7f:
         1f:e5:f4:46
-----BEGIN X509 CRL-----
MIICDjCB9wIBATANBgkqhkiG9w0BAQsFADCBnjELMAkGA1UEBhMCVVMxEDAOBgNV
BAgMB01vbnRhbmExEDAOBgNVBAcMB0JvemVtYW4xFTATBgNVBAoMDHdvbGZTU0xf
MjA0ODEZMBcGA1UECwwQUHJvZ3JhbW1pbmctMjA0ODEYMBYGA1UEAwwPd3d3Lndv
bGZzc2wuY29tMR8wHQYJKoZIhvcNAQkBFhBpbmZvQHdvbGZzc2wuY29tFw0yMzAx
MjYyMzM4MDNaFw0yNTEwMjIyMzM4MDNaMBQwEgIBAhcNMjMwMTI2MjMzODAzWqAO
MAwwCgYDVR0UBAMCAQUwDQYJKoZIhvcNAQELBQADggEBALjmOi+68D+9F6BcQ+z4
PHnV9gyYFNRQ0Kegc25N2s+Pz48Em98xH+wlAoC+wKaRfqg8uwagNO3UpN5L/9q3
cKWrZ5rXt5TCN4HyfBW++YcVxQW6YpRrqbskEUZEgFbOIeNLkzU6YkkjQ+fCow5E
BlkCZ65BlOzeT0ZbF985rbggtZvQEr+pcDDBVpWUaNi2VVcb/HZytXT5p+8Gvwva
bauuYslEmzRoII9+e5xhG54fr3HFPTrjo5n+WTXwjQRtcCFp+innjryBdxcNRA5A
G2N10aHzpggDegFORDOf5Rxjorr0RefWSDSoJzc4Dmx+EE4879xtqSttfHzXfx/l
9EY=
-----END X509 CRL-----
