Certificate Revocation List (CRL):
        Version 2 (0x1)
    Signature Algorithm: sha256WithRSAEncryption
        Issuer: /C=US/ST=Montana/L=Bozeman/O=Sawtooth/OU=Consulting/CN=www.wolfssl.com/emailAddress=info@wolfssl.com
        Last Update: Jul  4 04:39:23 2021 GMT
        Next Update: Mar 30 04:39:23 2024 GMT
        CRL extensions:
            X509v3 CRL Number: 
                2
Revoked Certificates:
    Serial Number: 02
        Revocation Date: Jul  4 04:39:23 2021 GMT
    Signature Algorithm: sha256WithRSAEncryption
         72:21:dc:ab:cd:72:a3:b5:79:d7:c1:fe:9c:55:35:fc:ef:2e:
         e3:b5:42:77:72:bd:44:55:76:e9:43:23:07:60:0e:1d:e5:5b:
         74:c2:28:00:7f:f7:fa:cd:fc:b3:31:81:26:1a:33:75:39:2e:
         70:98:ec:3f:2f:13:ba:a8:78:1e:28:67:e6:8f:7a:63:ea:f1:
         ac:35:41:42:3a:92:e1:66:9f:38:1e:19:1c:fe:bb:a1:b1:3f:
         e5:90:fa:13:e4:95:9c:7e:26:21:f2:48:ea:72:f0:ee:7e:4c:
         f5:0b:a6:54:29:63:e4:23:a3:c9:05:d7:96:16:fa:f3:1a:d5:
         a6:2c:2d:6d:37:40:bc:31:86:ab:70:35:45:dd:a1:c8:24:99:
         20:fa:16:f0:86:65:33:53:b7:dd:da:21:68:df:24:9c:d0:14:
         75:bb:90:e5:a7:1a:76:36:56:e8:68:59:aa:22:f0:95:84:76:
         b9:47:2e:68:b5:c6:59:0d:d2:46:93:c1:1e:4d:3a:a8:fc:9b:
         fd:6e:69:8f:62:85:45:95:fa:e0:71:b3:8c:fd:8c:34:f7:59:
         3d:3c:35:f6:1a:a2:94:e8:a0:08:20:aa:b9:0e:f6:39:d4:69:
         fc:b6:09:10:a7:9a:63:3f:0a:00:7d:5f:0e:ee:5b:90:de:e9:
         0f:0f:15:71
-----BEGIN X509 CRL-----
MIICBDCB7QIBATANBgkqhkiG9w0BAQsFADCBlDELMAkGA1UEBhMCVVMxEDAOBgNV
BAgMB01vbnRhbmExEDAOBgNVBAcMB0JvemVtYW4xETAPBgNVBAoMCFNhd3Rvb3Ro
MRMwEQYDVQQLDApDb25zdWx0aW5nMRgwFgYDVQQDDA93d3cud29sZnNzbC5jb20x
HzAdBgkqhkiG9w0BCQEWEGluZm9Ad29sZnNzbC5jb20XDTIxMDcwNDA0MzkyM1oX
DTI0MDMzMDA0MzkyM1owFDASAgECFw0yMTA3MDQwNDM5MjNaoA4wDDAKBgNVHRQE
AwIBAjANBgkqhkiG9w0BAQsFAAOCAQEAciHcq81yo7V518H+nFU1/O8u47VCd3K9
RFV26UMjB2AOHeVbdMIoAH/3+s38szGBJhozdTkucJjsPy8Tuqh4Hihn5o96Y+rx
rDVBQjqS4WafOB4ZHP67obE/5ZD6E+SVnH4mIfJI6nLw7n5M9QumVClj5COjyQXX
lhb68xrVpiwtbTdAvDGGq3A1Rd2hyCSZIPoW8IZlM1O33dohaN8knNAUdbuQ5aca
djZW6GhZqiLwlYR2uUcuaLXGWQ3SRpPBHk06qPyb/W5pj2KFRZX64HGzjP2MNPdZ
PTw19hqilOigCCCquQ72OdRp/LYJEKeaYz8KAH1fDu5bkN7pDw8VcQ==
-----END X509 CRL-----
