Certificate Revocation List (CRL):
        Version 2 (0x1)
    Signature Algorithm: sha256WithRSAEncryption
        Issuer: /C=US/ST=Montana/L=Bozeman/O=Sawtooth/OU=Consulting/CN=www.wolfssl.com/emailAddress=info@wolfssl.com
        Last Update: Jan 26 23:38:03 2023 GMT
        Next Update: Oct 22 23:38:03 2025 GMT
        CRL extensions:
            X509v3 CRL Number: 
                1
Revoked Certificates:
    Serial Number: 02
        Revocation Date: Jan 26 23:38:03 2023 GMT
    Signature Algorithm: sha256WithRSAEncryption
         67:5f:ac:2d:40:aa:cd:72:dc:32:0e:b5:ab:df:65:db:18:d7:
         34:c5:09:3b:e6:a2:c2:2e:0c:9c:c0:11:a9:ea:e2:86:03:1f:
         e8:7a:82:4e:2a:5a:81:0c:d8:06:07:27:c2:3e:14:07:54:44:
         a4:0b:aa:35:80:81:5e:d6:49:45:f0:b0:e6:0e:cd:96:81:c4:
         64:a5:a3:4d:66:70:4d:49:26:1e:de:72:4f:54:7b:da:0c:63:
         d9:10:1e:4e:87:95:32:bd:de:cd:73:17:08:f9:6a:77:bd:ab:
         11:08:dd:b9:1e:d9:67:9c:03:94:47:1d:9c:a3:48:e9:a6:d0:
         9b:30:fa:35:e1:86:cc:37:80:53:59:47:e6:1b:11:d6:a1:5e:
         e8:5b:c5:db:51:9b:82:80:fe:41:02:c7:3e:74:c6:77:ba:f9:
         49:6c:d9:b0:ab:c3:92:89:9e:20:c5:99:4c:f4:c5:c1:30:52:
         29:6c:04:31:fb:ab:11:e8:74:7f:15:dc:79:88:2d:27:0f:a6:
         ea:41:fb:42:2c:a7:1c:d9:1f:98:0a:e2:c4:51:93:5e:ae:52:
         d8:04:9a:25:d6:b0:79:ae:8b:2f:04:5e:e7:50:71:2a:85:c0:
         29:a0:ac:90:7e:26:70:9c:64:e9:d4:87:2c:c8:1a:b8:c5:30:
         9f:75:2d:a3
-----BEGIN X509 CRL-----
MIICBDCB7QIBATANBgkqhkiG9w0BAQsFADCBlDELMAkGA1UEBhMCVVMxEDAOBgNV
BAgMB01vbnRhbmExEDAOBgNVBAcMB0JvemVtYW4xETAPBgNVBAoMCFNhd3Rvb3Ro
MRMwEQYDVQQLDApDb25zdWx0aW5nMRgwFgYDVQQDDA93d3cud29sZnNzbC5jb20x
HzAdBgkqhkiG9w0BCQEWEGluZm9Ad29sZnNzbC5jb20XDTIzMDEyNjIzMzgwM1oX
DTI1MTAyMjIzMzgwM1owFDASAgECFw0yMzAxMjYyMzM4MDNaoA4wDDAKBgNVHRQE
AwIBATANBgkqhkiG9w0BAQsFAAOCAQEAZ1+sLUCqzXLcMg61q99l2xjXNMUJO+ai
wi4MnMARqerihgMf6HqCTipagQzYBgcnwj4UB1REpAuqNYCBXtZJRfCw5g7NloHE
ZKWjTWZwTUkmHt5yT1R72gxj2RAeToeVMr3ezXMXCPlqd72rEQjduR7ZZ5wDlEcd
nKNI6abQmzD6NeGGzDeAU1lH5hsR1qFe6FvF21GbgoD+QQLHPnTGd7r5SWzZsKvD
komeIMWZTPTFwTBSKWwEMfurEeh0fxXceYgtJw+m6kH7QiynHNkfmArixFGTXq5S
2ASaJdawea6LLwRe51BxKoXAKaCskH4mcJxk6dSHLMgauMUwn3Utow==
-----END X509 CRL-----
