Certificate Revocation List (CRL):
        Version 2 (0x1)
    Signature Algorithm: sha256WithRSAEncryption
        Issuer: /C=US/ST=Montana/L=Bozeman/O=Sawtooth/OU=Consulting/CN=www.wolfssl.com/emailAddress=info@wolfssl.com
        Last Update: Jul  4 04:39:23 2021 GMT
        Next Update: Mar 30 04:39:23 2024 GMT
        CRL extensions:
            X509v3 CRL Number: 
                3
Revoked Certificates:
    Serial Number: 01
        Revocation Date: Jul  4 04:39:23 2021 GMT
    Serial Number: 02
        Revocation Date: Jul  4 04:39:23 2021 GMT
    Signature Algorithm: sha256WithRSAEncryption
         0f:7f:b0:db:66:04:e1:b1:6b:a6:2b:85:bb:db:17:5e:64:29:
         a2:75:cb:4b:2d:1e:cf:05:f2:95:c3:08:17:6b:1e:2e:06:c9:
         d3:ee:40:22:39:36:f2:ea:ef:c0:b4:2a:88:c5:70:27:4c:2a:
         b8:fd:bc:5c:07:64:89:40:a5:12:c2:58:3d:b6:36:47:91:f1:
         07:04:ba:2f:5a:5f:3b:11:5f:cd:b4:f6:cd:88:e3:b8:ff:d2:
         51:a2:f0:aa:49:6b:3d:d3:82:6c:85:2d:9b:11:08:47:58:c4:
         a3:ee:61:dd:c1:e5:10:85:7d:73:3f:97:df:fe:bf:f3:f8:e7:
         8e:b0:3e:31:85:bf:01:0d:b2:51:39:00:5a:1c:bf:e3:98:8e:
         c2:9f:1d:a1:a8:42:05:2d:a8:f5:ad:be:8f:bc:b7:c3:7a:02:
         be:a9:af:47:b7:4c:6c:2c:69:b9:71:d1:f9:53:26:7c:83:39:
         8a:45:42:cd:25:e9:f8:8f:de:f6:e7:4a:9d:9b:43:8b:90:98:
         46:a9:d2:2d:11:09:d2:46:d1:af:13:d8:c3:d1:08:5c:bc:bf:
         8c:8c:b1:1b:dc:89:f1:37:1b:05:b7:7c:0c:fd:34:28:dc:15:
         87:cf:14:bf:03:e7:ff:7a:b1:49:ed:59:ab:03:c4:4b:9e:71:
         a5:a0:75:56
-----BEGIN X509 CRL-----
MIICGTCCAQECAQEwDQYJKoZIhvcNAQELBQAwgZQxCzAJBgNVBAYTAlVTMRAwDgYD
VQQIDAdNb250YW5hMRAwDgYDVQQHDAdCb3plbWFuMREwDwYDVQQKDAhTYXd0b290
aDETMBEGA1UECwwKQ29uc3VsdGluZzEYMBYGA1UEAwwPd3d3LndvbGZzc2wuY29t
MR8wHQYJKoZIhvcNAQkBFhBpbmZvQHdvbGZzc2wuY29tFw0yMTA3MDQwNDM5MjNa
Fw0yNDAzMzAwNDM5MjNaMCgwEgIBARcNMjEwNzA0MDQzOTIzWjASAgECFw0yMTA3
MDQwNDM5MjNaoA4wDDAKBgNVHRQEAwIBAzANBgkqhkiG9w0BAQsFAAOCAQEAD3+w
22YE4bFrpiuFu9sXXmQponXLSy0ezwXylcMIF2seLgbJ0+5AIjk28urvwLQqiMVw
J0wquP28XAdkiUClEsJYPbY2R5HxBwS6L1pfOxFfzbT2zYjjuP/SUaLwqklrPdOC
bIUtmxEIR1jEo+5h3cHlEIV9cz+X3/6/8/jnjrA+MYW/AQ2yUTkAWhy/45iOwp8d
oahCBS2o9a2+j7y3w3oCvqmvR7dMbCxpuXHR+VMmfIM5ikVCzSXp+I/e9udKnZtD
i5CYRqnSLREJ0kbRrxPYw9EIXLy/jIyxG9yJ8TcbBbd8DP00KNwVh88UvwPn/3qx
Se1ZqwPES55xpaB1Vg==
-----END X509 CRL-----
