Certificate Revocation List (CRL):
        Version 2 (0x1)
    Signature Algorithm: sha256WithRSAEncryption
        Issuer: /C=US/ST=Montana/L=Bozeman/O=Sawtooth/OU=Consulting/CN=www.wolfssl.com/emailAddress=info@wolfssl.com
        Last Update: Jan 26 23:38:03 2023 GMT
        Next Update: Oct 22 23:38:03 2025 GMT
        CRL extensions:
            X509v3 CRL Number: 
                2
Revoked Certificates:
    Serial Number: 01
        Revocation Date: Jan 26 23:38:03 2023 GMT
    Serial Number: 02
        Revocation Date: Jan 26 23:38:03 2023 GMT
    Signature Algorithm: sha256WithRSAEncryption
         a8:14:ee:72:24:3e:a3:ad:73:0a:b2:79:e1:41:b6:0e:39:29:
         86:ae:f3:bc:6e:3b:fa:93:bf:61:ac:00:2a:bc:69:96:9e:a4:
         fa:15:d4:5c:ff:0c:a9:05:82:cc:c3:cd:71:33:21:38:ea:7e:
         9b:5e:a1:f0:a8:3e:14:55:9c:4b:b3:89:cd:34:67:48:c9:dd:
         81:eb:22:11:9c:ad:95:30:b0:ce:58:04:30:0b:f9:c7:d8:6a:
         a9:e1:fd:c9:5b:4b:ab:e8:ad:83:9e:1f:62:6e:1b:e9:1d:05:
         9d:d0:e9:e5:32:8c:6c:6b:3b:0c:d3:9e:f2:94:b5:cc:c4:78:
         2d:d0:e9:16:86:79:67:c3:0b:2e:35:ce:d9:3d:3b:0d:ef:ca:
         af:8d:27:bd:5d:a3:30:fd:01:76:3e:b5:2e:62:33:24:1a:0a:
         01:d6:4e:9f:25:69:2b:96:0a:00:7c:97:12:50:b9:ca:51:27:
         a9:09:30:0f:aa:c1:f1:5e:00:5d:ee:b9:fd:15:95:4d:06:75:
         7d:a5:dd:ca:f7:17:44:93:b4:83:f2:19:c5:6f:3d:16:03:13:
         d3:75:ca:81:f0:64:7a:b3:1b:61:22:ef:cc:44:8b:33:99:5e:
         e3:c7:29:93:c4:b6:d2:23:83:42:d4:ca:62:94:5d:b3:69:85:
         ed:f6:61:81
-----BEGIN X509 CRL-----
MIICGTCCAQECAQEwDQYJKoZIhvcNAQELBQAwgZQxCzAJBgNVBAYTAlVTMRAwDgYD
VQQIDAdNb250YW5hMRAwDgYDVQQHDAdCb3plbWFuMREwDwYDVQQKDAhTYXd0b290
aDETMBEGA1UECwwKQ29uc3VsdGluZzEYMBYGA1UEAwwPd3d3LndvbGZzc2wuY29t
MR8wHQYJKoZIhvcNAQkBFhBpbmZvQHdvbGZzc2wuY29tFw0yMzAxMjYyMzM4MDNa
Fw0yNTEwMjIyMzM4MDNaMCgwEgIBARcNMjMwMTI2MjMzODAzWjASAgECFw0yMzAx
MjYyMzM4MDNaoA4wDDAKBgNVHRQEAwIBAjANBgkqhkiG9w0BAQsFAAOCAQEAqBTu
ciQ+o61zCrJ54UG2Djkphq7zvG47+pO/YawAKrxplp6k+hXUXP8MqQWCzMPNcTMh
OOp+m16h8Kg+FFWcS7OJzTRnSMndgesiEZytlTCwzlgEMAv5x9hqqeH9yVtLq+it
g54fYm4b6R0FndDp5TKMbGs7DNOe8pS1zMR4LdDpFoZ5Z8MLLjXO2T07De/Kr40n
vV2jMP0Bdj61LmIzJBoKAdZOnyVpK5YKAHyXElC5ylEnqQkwD6rB8V4AXe65/RWV
TQZ1faXdyvcXRJO0g/IZxW89FgMT03XKgfBkerMbYSLvzESLM5le48cpk8S20iOD
QtTKYpRds2mF7fZhgQ==
-----END X509 CRL-----
