Certificate Revocation List (CRL):
        Version 2 (0x1)
    Signature Algorithm: sha256WithRSAEncryption
        Issuer: /C=US/ST=Montana/L=Bozeman/O=Sawtooth/OU=Consulting/CN=www.wolfssl.com/emailAddress=info@wolfssl.com
        Last Update: Jul  4 04:39:23 2021 GMT
        Next Update: Mar 30 04:39:23 2024 GMT
        CRL extensions:
            X509v3 CRL Number: 
                2
Revoked Certificates:
    Serial Number: 02
        Revocation Date: Jul  4 04:39:23 2021 GMT
    Signature Algorithm: sha256WithRSAEncryption
         72:21:dc:ab:cd:72:a3:b5:79:d7:c1:fe:9c:55:35:fc:ef:2e:
         e3:b5:42:77:72:bd:44:55:76:e9:43:23:07:60:0e:1d:e5:5b:
         74:c2:28:00:7f:f7:fa:cd:fc:b3:31:81:26:1a:33:75:39:2e:
         70:98:ec:3f:2f:13:ba:a8:78:1e:28:67:e6:8f:7a:63:ea:f1:
         ac:35:41:42:3a:92:e1:66:9f:38:1e:19:1c:fe:bb:a1:b1:3f:
         e5:90:fa:13:e4:95:9c:7e:26:21:f2:48:ea:72:f0:ee:7e:4c:
         f5:0b:a6:54:29:63:e4:23:a3:c9:05:d7:96:16:fa:f3:1a:d5:
         a6:2c:2d:6d:37:40:bc:31:86:ab:70:35:45:dd:a1:c8:24:99:
         20:fa:16:f0:86:65:33:53:b7:dd:da:21:68:df:24:9c:d0:14:
         75:bb:90:e5:a7:1a:76:36:56:e8:68:59:aa:22:f0:95:84:76:
         b9:47:2e:68:b5:c6:59:0d:d2:46:93:c1:1e:4d:3a:a8:fc:9b:
         fd:6e:69:8f:62:85:45:95:fa:e0:71:b3:8c:fd:8c:34:f7:59:
         3d:3c:35:f6:1a:a2:94:e8:a0:08:20:aa:b9:0e:f6:39:d4:69:
         fc:b6:09:10:a7:9a:63:3f:0a:00:7d:5f:0e:ee:5b:90:de:e9:
         0f:0f:15:71
-----BEGIN X509 CRL-----
MIICBDCB7QIBATANBgkqhkiG9w0BAQsFADCBlDELMAkGA1UEBhMCVVMxEDAOBgNV
BAgMB01vbnRhbmExEDAOBgNVBAcMB0JvemVtYW4xETAPBgNVBAoMCFNhd3Rvb3Ro
MRMwEQYDVQQLDApDb25zdWx0aW5nMRgwFgYDVQQDDA93d3cud29sZnNzbC5jb20x
HzAdBgkqhkiG9w0BCQEWEGluZm9Ad29sZnNzbC5jb20XDTIxMDcwNDA0MzkyM1oX
DTI0MDMzMDA0MzkyM1owFDASAgECFw0yMTA3MDQwNDM5MjNaoA4wDDAKBgNVHRQE
AwIBAjANBgkqhkiG9w0BAQsFAAOCAQEAciHcq81yo7V518H+nFU1/O8u47VCd3K9
RFV26UMjB2AOHeVbdMIoAH/3+s38szGBJhozdTkucJjsPy8Tuqh4Hihn5o96Y+rx
rDVBQjqS4WafOB4ZHP67obE/5ZD6E+SVnH4mIfJI6nLw7n5M9QumVClj5COjyQXX
lhb68xrVpiwtbTdAvDGGq3A1Rd2hyCSZIPoW8IZlM1O33dohaN8knNAUdbuQ5aca
djZW6GhZqiLwlYR2uUcuaLXGWQ3SRpPBHk06qPyb/W5pj2KFRZX64HGzjP2MNPdZ
PTw19hqilOigCCCquQ72OdRp/LYJEKeaYz8KAH1fDu5bkN7pDw8VcQ==
-----END X509 CRL-----
Certificate Revocation List (CRL):
        Version 2 (0x1)
    Signature Algorithm: sha256WithRSAEncryption
        Issuer: /C=US/ST=Montana/L=Bozeman/O=wolfSSL_2048/OU=Programming-2048/CN=www.wolfssl.com/emailAddress=info@wolfssl.com
        Last Update: Jul  4 04:39:23 2021 GMT
        Next Update: Mar 30 04:39:23 2024 GMT
        CRL extensions:
            X509v3 CRL Number: 
                1
No Revoked Certificates.
    Signature Algorithm: sha256WithRSAEncryption
         77:b3:93:40:05:20:e5:99:ed:10:4a:a9:d4:e6:e1:32:af:a6:
         69:f5:55:6e:88:26:53:a4:16:ca:bd:ab:6f:14:ea:84:c9:98:
         5c:ce:05:a6:82:e1:08:e1:87:6e:f5:15:d3:78:9d:25:8b:22:
         ab:6b:1e:6f:8a:9c:1f:e6:fa:d4:bc:40:3a:f7:c5:90:64:fc:
         e9:29:3a:90:e7:6e:08:ce:2a:e7:29:eb:67:61:97:1a:4d:f1:
         7f:70:c9:b6:b6:61:53:8e:47:1a:cd:2d:49:1b:24:13:63:be:
         f7:6b:c0:94:da:1a:23:35:00:e6:25:b0:43:cf:74:2b:1a:a7:
         13:3e:2e:30:e2:f8:69:cf:50:96:76:3d:8a:fe:7b:0a:8f:59:
         17:21:71:53:94:34:2f:3b:55:18:c7:1e:b3:8c:ee:8e:9c:df:
         92:a9:fe:0e:17:dd:d8:44:0a:45:2f:d3:79:11:52:c1:97:8f:
         ae:48:8e:07:68:19:db:94:71:54:73:17:bd:96:0d:74:68:8e:
         e9:d7:54:b2:60:e6:07:7b:bd:ed:65:ae:c3:a4:9f:fa:71:0a:
         e3:cb:7c:6a:49:df:d1:85:a4:eb:fb:5b:6b:45:c0:2f:78:fd:
         b7:40:9a:df:92:72:50:d6:48:38:7c:23:a6:d9:47:dc:4d:28:
         06:0a:cb:e6
-----BEGIN X509 CRL-----
MIIB+DCB4QIBATANBgkqhkiG9w0BAQsFADCBnjELMAkGA1UEBhMCVVMxEDAOBgNV
BAgMB01vbnRhbmExEDAOBgNVBAcMB0JvemVtYW4xFTATBgNVBAoMDHdvbGZTU0xf
MjA0ODEZMBcGA1UECwwQUHJvZ3JhbW1pbmctMjA0ODEYMBYGA1UEAwwPd3d3Lndv
bGZzc2wuY29tMR8wHQYJKoZIhvcNAQkBFhBpbmZvQHdvbGZzc2wuY29tFw0yMTA3
MDQwNDM5MjNaFw0yNDAzMzAwNDM5MjNaoA4wDDAKBgNVHRQEAwIBATANBgkqhkiG
9w0BAQsFAAOCAQEAd7OTQAUg5ZntEEqp1ObhMq+mafVVbogmU6QWyr2rbxTqhMmY
XM4FpoLhCOGHbvUV03idJYsiq2seb4qcH+b61LxAOvfFkGT86Sk6kOduCM4q5ynr
Z2GXGk3xf3DJtrZhU45HGs0tSRskE2O+92vAlNoaIzUA5iWwQ890KxqnEz4uMOL4
ac9QlnY9iv57Co9ZFyFxU5Q0LztVGMces4zujpzfkqn+Dhfd2EQKRS/TeRFSwZeP
rkiOB2gZ25RxVHMXvZYNdGiO6ddUsmDmB3u97WWuw6Sf+nEK48t8aknf0YWk6/tb
a0XAL3j9t0Ca35JyUNZIOHwjptlH3E0oBgrL5g==
-----END X509 CRL-----
