Certificate Revocation List (CRL):
        Version 2 (0x1)
    Signature Algorithm: sha256WithRSAEncryption
        Issuer: /C=US/ST=Montana/L=Bozeman/OU=Engineering/CN=localhost/emailAddress=info@wolfssl.com
        Last Update: Jul  4 04:41:54 2021 GMT
        Next Update: Mar 30 04:41:54 2024 GMT
        CRL extensions:
            X509v3 CRL Number: 
                1
No Revoked Certificates.
    Signature Algorithm: sha256WithRSAEncryption
         23:3d:f0:61:39:a9:2f:06:ce:26:58:98:a5:0f:28:e8:96:95:
         ca:db:ff:fc:8b:ac:03:6c:4b:90:44:4b:8e:66:10:89:4a:71:
         0f:0b:61:d0:c8:ed:f9:33:cd:18:24:e9:43:45:b1:11:6a:12:
         15:0f:4f:1e:01:aa:7e:60:66:f6:28:59:96:d5:88:02:07:f2:
         d5:67:27:ec:43:5b:e0:31:b8:6d:ce:91:e8:87:d0:fc:c9:ea:
         2f:3e:f2:6e:08:ac:6e:bf:80:9b:87:b1:c1:fb:cb:36:25:94:
         86:a0:09:cf:47:b7:92:ad:34:a8:33:6e:fc:9e:1c:e4:f2:7a:
         5a:a7:de:d3:27:d6:b2:84:ec:3c:b5:c8:67:16:f8:f0:36:87:
         99:bb:b2:a9:09:ae:62:a6:f2:79:e3:07:3f:ac:fc:35:84:ed:
         8c:0e:be:7e:67:74:86:43:54:eb:ea:fb:50:ff:ce:a8:e9:36:
         c7:80:8b:16:41:78:b8:4c:85:00:5e:c4:7d:65:eb:86:88:a2:
         15:0a:ca:ec:c8:63:65:17:37:5d:bc:76:05:f1:51:73:04:6d:
         c0:50:11:d5:1a:74:74:59:37:3c:9a:2d:51:ee:03:a3:f4:26:
         12:60:2e:e3:83:f4:53:1e:6e:93:55:6f:76:b6:f0:8f:e5:60:
         be:24:df:aa
-----BEGIN X509 CRL-----
MIIB1TCBvgIBATANBgkqhkiG9w0BAQsFADB8MQswCQYDVQQGEwJVUzEQMA4GA1UE
CAwHTW9udGFuYTEQMA4GA1UEBwwHQm96ZW1hbjEUMBIGA1UECwwLRW5naW5lZXJp
bmcxEjAQBgNVBAMMCWxvY2FsaG9zdDEfMB0GCSqGSIb3DQEJARYQaW5mb0B3b2xm
c3NsLmNvbRcNMjEwNzA0MDQ0MTU0WhcNMjQwMzMwMDQ0MTU0WqAOMAwwCgYDVR0U
BAMCAQEwDQYJKoZIhvcNAQELBQADggEBACM98GE5qS8GziZYmKUPKOiWlcrb//yL
rANsS5BES45mEIlKcQ8LYdDI7fkzzRgk6UNFsRFqEhUPTx4Bqn5gZvYoWZbViAIH
8tVnJ+xDW+AxuG3OkeiH0PzJ6i8+8m4IrG6/gJuHscH7yzYllIagCc9Ht5KtNKgz
bvyeHOTyelqn3tMn1rKE7Dy1yGcW+PA2h5m7sqkJrmKm8nnjBz+s/DWE7YwOvn5n
dIZDVOvq+1D/zqjpNseAixZBeLhMhQBexH1l64aIohUKyuzIY2UXN128dgXxUXME
bcBQEdUadHRZNzyaLVHuA6P0JhJgLuOD9FMebpNVb3a28I/lYL4k36o=
-----END X509 CRL-----
