Certificate Revocation List (CRL):
        Version 2 (0x1)
    Signature Algorithm: sha256WithRSAEncryption
        Issuer: /C=US/ST=Montana/L=Bozeman/OU=Engineering/CN=www.nomatch.com/emailAddress=info@wolfssl.com
        Last Update: Jul  4 04:41:54 2021 GMT
        Next Update: Mar 30 04:41:54 2024 GMT
        CRL extensions:
            X509v3 CRL Number: 
                1
No Revoked Certificates.
    Signature Algorithm: sha256WithRSAEncryption
         4f:ff:c9:e5:8d:af:3e:d4:a7:fd:57:7e:dd:86:c7:82:67:68:
         db:3e:15:16:9b:7e:48:b3:f8:45:c5:27:2f:42:86:a3:a2:7e:
         4b:9e:ee:40:15:36:a8:8f:e7:a1:1e:81:29:2f:8c:7d:2f:02:
         06:a2:13:d9:2a:ba:d4:c1:d0:9f:9b:02:86:2d:e7:e0:79:a7:
         76:54:85:96:01:82:d9:7b:36:a9:eb:ce:76:35:38:b8:84:3c:
         20:fb:7f:88:2b:9a:ee:48:1b:a1:24:c0:30:fb:46:43:81:ab:
         f2:1a:77:ef:57:bd:14:8a:f2:8b:1e:f4:fc:34:63:a1:9c:64:
         47:55:90:9d:d9:79:e7:2d:0f:e4:b6:10:94:1d:7f:06:4e:41:
         c7:3b:69:a4:7d:f3:b0:06:29:67:1b:b6:fa:80:a2:1f:71:50:
         79:0c:f6:2b:d9:83:e6:79:76:2c:43:41:eb:2f:49:5c:6b:f1:
         aa:44:32:61:57:91:4a:e1:95:3d:93:94:af:c5:08:25:5d:3d:
         e1:97:68:b8:28:b6:e9:85:04:43:34:c5:8f:11:c0:7f:52:2e:
         eb:c1:99:fd:64:6e:57:1f:8a:14:b5:8c:24:75:e7:6a:19:38:
         f6:a7:60:c1:ed:56:82:24:23:a7:8c:ff:4d:77:d5:12:a5:6c:
         d1:79:93:4c
-----BEGIN X509 CRL-----
MIIB3DCBxQIBATANBgkqhkiG9w0BAQsFADCBgjELMAkGA1UEBhMCVVMxEDAOBgNV
BAgMB01vbnRhbmExEDAOBgNVBAcMB0JvemVtYW4xFDASBgNVBAsMC0VuZ2luZWVy
aW5nMRgwFgYDVQQDDA93d3cubm9tYXRjaC5jb20xHzAdBgkqhkiG9w0BCQEWEGlu
Zm9Ad29sZnNzbC5jb20XDTIxMDcwNDA0NDE1NFoXDTI0MDMzMDA0NDE1NFqgDjAM
MAoGA1UdFAQDAgEBMA0GCSqGSIb3DQEBCwUAA4IBAQBP/8nlja8+1Kf9V37dhseC
Z2jbPhUWm35Is/hFxScvQoajon5Lnu5AFTaoj+ehHoEpL4x9LwIGohPZKrrUwdCf
mwKGLefgead2VIWWAYLZezap6852NTi4hDwg+3+IK5ruSBuhJMAw+0ZDgavyGnfv
V70UivKLHvT8NGOhnGRHVZCd2XnnLQ/kthCUHX8GTkHHO2mkffOwBilnG7b6gKIf
cVB5DPYr2YPmeXYsQ0HrL0lca/GqRDJhV5FK4ZU9k5SvxQglXT3hl2i4KLbphQRD
NMWPEcB/Ui7rwZn9ZG5XH4oUtYwkdedqGTj2p2DB7VaCJCOnjP9Nd9USpWzReZNM
-----END X509 CRL-----
