Certificate Revocation List (CRL):
        Version 2 (0x1)
    Signature Algorithm: sha256WithRSAEncryption
        Issuer: /C=US/ST=Montana/L=Bozeman/OU=Engineering/CN=*localhost/emailAddress=info@wolfssl.com
        Last Update: Jul  4 04:41:54 2021 GMT
        Next Update: Mar 30 04:41:54 2024 GMT
        CRL extensions:
            X509v3 CRL Number: 
                1
No Revoked Certificates.
    Signature Algorithm: sha256WithRSAEncryption
         26:98:20:e9:06:2b:25:e8:12:3c:34:0e:69:6d:50:d5:19:82:
         03:5d:47:2b:0f:cd:80:2a:8c:ec:8d:7e:9a:8a:cd:c7:67:72:
         9b:d1:9f:96:fe:ca:a5:43:2d:28:68:00:17:d1:5e:10:33:bb:
         f4:02:31:64:dc:76:46:da:9d:f3:53:e4:84:48:2d:8d:e8:34:
         5e:8a:d3:c6:a6:70:15:d9:12:a0:74:aa:51:f3:7f:e3:cd:b3:
         8e:a6:e5:3b:8a:43:9d:fe:e2:69:1a:52:4c:6f:95:06:fb:98:
         78:49:29:41:5f:b5:18:ee:7a:6c:9c:f1:02:37:e5:a3:62:dc:
         38:75:53:ca:45:0c:81:c4:74:12:0f:3c:35:ef:ce:f6:87:a2:
         94:42:a1:12:3a:0a:e7:96:a0:02:ed:22:6b:69:57:c8:59:c7:
         75:0f:55:23:66:3f:c3:bf:09:3d:1c:cd:42:93:fa:28:2d:2c:
         07:dd:fd:52:5c:a3:a1:6a:76:f0:a5:ef:ff:2e:74:e6:0e:2d:
         c5:d2:46:cc:d7:7b:05:73:5c:91:14:6e:3c:b4:30:77:19:8b:
         47:b4:23:13:bd:9f:36:e2:2c:ff:ae:f6:a5:61:09:52:a9:d4:
         55:a5:77:3e:25:55:27:61:8a:b6:1c:a3:ad:4a:4b:cc:9e:94:
         92:60:d2:ec
-----BEGIN X509 CRL-----
MIIB1jCBvwIBATANBgkqhkiG9w0BAQsFADB9MQswCQYDVQQGEwJVUzEQMA4GA1UE
CAwHTW9udGFuYTEQMA4GA1UEBwwHQm96ZW1hbjEUMBIGA1UECwwLRW5naW5lZXJp
bmcxEzARBgNVBAMMCipsb2NhbGhvc3QxHzAdBgkqhkiG9w0BCQEWEGluZm9Ad29s
ZnNzbC5jb20XDTIxMDcwNDA0NDE1NFoXDTI0MDMzMDA0NDE1NFqgDjAMMAoGA1Ud
FAQDAgEBMA0GCSqGSIb3DQEBCwUAA4IBAQAmmCDpBisl6BI8NA5pbVDVGYIDXUcr
D82AKozsjX6ais3HZ3Kb0Z+W/sqlQy0oaAAX0V4QM7v0AjFk3HZG2p3zU+SESC2N
6DReitPGpnAV2RKgdKpR83/jzbOOpuU7ikOd/uJpGlJMb5UG+5h4SSlBX7UY7nps
nPECN+WjYtw4dVPKRQyBxHQSDzw17872h6KUQqESOgrnlqAC7SJraVfIWcd1D1Uj
Zj/Dvwk9HM1Ck/ooLSwH3f1SXKOhanbwpe//LnTmDi3F0kbM13sFc1yRFG48tDB3
GYtHtCMTvZ824iz/rvalYQlSqdRVpXc+JVUnYYq2HKOtSkvMnpSSYNLs
-----END X509 CRL-----
