Certificate:
    Data:
        Version: 3 (0x2)
        Serial Number:
            91:5b:1c:11:26:a9:64:88
    Signature Algorithm: ecdsa-with-SHA256
        Issuer: C=US, ST=Washington, L=Seattle, O=wolfSSL, OU=Development, CN=www.wolfssl.com/emailAddress=info@wolfssl.com
        Validity
            Not Before: Jul  4 04:39:21 2021 GMT
            Not After : Mar 30 04:39:21 2024 GMT
        Subject: C=US, ST=Washington, L=Seattle, O=wolfSSL, OU=Development, CN=www.wolfssl.com/emailAddress=info@wolfssl.com
        Subject Public Key Info:
            Public Key Algorithm: id-ecPublicKey
                Public-Key: (256 bit)
                pub: 
                    04:02:d3:d9:6e:d6:01:8e:45:c8:b9:90:31:e5:c0:
                    4c:e3:9e:ad:29:38:98:ba:10:d6:e9:09:2a:80:a9:
                    2e:17:2a:b9:8a:bf:33:83:46:e3:95:0b:e4:77:40:
                    b5:3b:43:45:33:0f:61:53:7c:37:44:c1:cb:fc:80:
                    ca:e8:43:ea:a7
                ASN1 OID: prime256v1
                NIST CURVE: P-256
        X509v3 extensions:
            X509v3 Subject Key Identifier: 
                56:8E:9A:C3:F0:42:DE:18:B9:45:55:6E:F9:93:CF:EA:C3:F3:A5:21
            X509v3 Authority Key Identifier: 
                keyid:56:8E:9A:C3:F0:42:DE:18:B9:45:55:6E:F9:93:CF:EA:C3:F3:A5:21

            X509v3 Basic Constraints: critical
                CA:TRUE
            X509v3 Key Usage: critical
                Digital Signature, Certificate Sign, CRL Sign
    Signature Algorithm: ecdsa-with-SHA256
         30:44:02:20:4f:21:99:49:e8:b9:f3:4c:11:3a:92:84:f7:c2:
         81:1d:4e:2d:83:4d:63:4b:02:14:a6:4a:6c:cc:c8:ff:a9:15:
         02:20:2f:88:51:d1:e0:32:f7:06:40:ee:94:cf:ca:95:08:36:
         a0:e9:a0:a9:84:d9:3a:77:36:cb:87:d5:5e:d6:b5:a6
-----BEGIN CERTIFICATE-----
MIICiTCCAjCgAwIBAgIJAJFbHBEmqWSIMAoGCCqGSM49BAMCMIGXMQswCQYDVQQG
EwJVUzETMBEGA1UECAwKV2FzaGluZ3RvbjEQMA4GA1UEBwwHU2VhdHRsZTEQMA4G
A1UECgwHd29sZlNTTDEUMBIGA1UECwwLRGV2ZWxvcG1lbnQxGDAWBgNVBAMMD3d3
dy53b2xmc3NsLmNvbTEfMB0GCSqGSIb3DQEJARYQaW5mb0B3b2xmc3NsLmNvbTAe
Fw0yMTA3MDQwNDM5MjFaFw0yNDAzMzAwNDM5MjFaMIGXMQswCQYDVQQGEwJVUzET
MBEGA1UECAwKV2FzaGluZ3RvbjEQMA4GA1UEBwwHU2VhdHRsZTEQMA4GA1UECgwH
d29sZlNTTDEUMBIGA1UECwwLRGV2ZWxvcG1lbnQxGDAWBgNVBAMMD3d3dy53b2xm
c3NsLmNvbTEfMB0GCSqGSIb3DQEJARYQaW5mb0B3b2xmc3NsLmNvbTBZMBMGByqG
SM49AgEGCCqGSM49AwEHA0IABALT2W7WAY5FyLmQMeXATOOerSk4mLoQ1ukJKoCp
LhcquYq/M4NG45UL5HdAtTtDRTMPYVN8N0TBy/yAyuhD6qejYzBhMB0GA1UdDgQW
BBRWjprD8ELeGLlFVW75k8/qw/OlITAfBgNVHSMEGDAWgBRWjprD8ELeGLlFVW75
k8/qw/OlITAPBgNVHRMBAf8EBTADAQH/MA4GA1UdDwEB/wQEAwIBhjAKBggqhkjO
PQQDAgNHADBEAiBPIZlJ6LnzTBE6koT3woEdTi2DTWNLAhSmSmzMyP+pFQIgL4hR
0eAy9wZA7pTPypUINqDpoKmE2Tp3NsuH1V7WtaY=
-----END CERTIFICATE-----
