Certificate:
    Data:
        Version: 3 (0x2)
        Serial Number:
            f0:48:51:23:e8:17:3d:1e
    Signature Algorithm: ecdsa-with-SHA384
        Issuer: C=US, ST=Washington, L=Seattle, O=wolfSSL, OU=Development, CN=www.wolfssl.com/emailAddress=info@wolfssl.com
        Validity
            Not Before: Jul  4 04:39:21 2021 GMT
            Not After : Mar 30 04:39:21 2024 GMT
        Subject: C=US, ST=Washington, L=Seattle, O=wolfSSL, OU=Development, CN=www.wolfssl.com/emailAddress=info@wolfssl.com
        Subject Public Key Info:
            Public Key Algorithm: id-ecPublicKey
                Public-Key: (384 bit)
                pub: 
                    04:ee:82:d4:39:9a:b1:27:82:f4:d7:ea:c6:bc:03:
                    1d:4d:83:61:f4:03:ae:7e:bd:d8:5a:a5:b9:f0:8e:
                    a2:a5:da:ce:87:3b:5a:ab:44:16:9c:f5:9f:62:dd:
                    f6:20:cd:9c:76:3c:40:b1:3f:97:17:df:59:f6:cd:
                    de:cd:46:35:c0:ed:5e:2e:48:b6:66:91:71:74:b7:
                    0c:3f:b9:9a:b7:83:bd:93:3f:5f:50:2d:70:3f:de:
                    35:25:e1:90:3b:86:e0
                ASN1 OID: secp384r1
                NIST CURVE: P-384
        X509v3 extensions:
            X509v3 Subject Key Identifier: 
                AB:E0:C3:26:4C:18:D4:72:BB:D2:84:8C:9C:0A:05:92:80:12:53:52
            X509v3 Authority Key Identifier: 
                keyid:AB:E0:C3:26:4C:18:D4:72:BB:D2:84:8C:9C:0A:05:92:80:12:53:52

            X509v3 Basic Constraints: critical
                CA:TRUE
            X509v3 Key Usage: critical
                Digital Signature, Certificate Sign, CRL Sign
    Signature Algorithm: ecdsa-with-SHA384
         30:65:02:31:00:8c:a0:0a:88:87:fb:b2:44:cc:04:0d:ca:cc:
         89:85:30:06:f1:7a:f1:a3:cc:68:a0:79:c7:09:aa:f1:98:8f:
         b8:0c:88:b0:66:fd:f5:0b:3f:5f:a5:7a:5f:71:7f:11:18:02:
         30:06:f8:c7:ce:ff:73:6a:e3:13:0a:4f:63:36:7a:71:4d:ec:
         60:e4:c5:f1:64:60:05:e8:09:c5:7c:47:0a:08:35:cc:69:3c:
         50:15:c9:75:e6:ac:c2:24:d4:47:c0:1f:87
-----BEGIN CERTIFICATE-----
MIICxzCCAk2gAwIBAgIJAPBIUSPoFz0eMAoGCCqGSM49BAMDMIGXMQswCQYDVQQG
EwJVUzETMBEGA1UECAwKV2FzaGluZ3RvbjEQMA4GA1UEBwwHU2VhdHRsZTEQMA4G
A1UECgwHd29sZlNTTDEUMBIGA1UECwwLRGV2ZWxvcG1lbnQxGDAWBgNVBAMMD3d3
dy53b2xmc3NsLmNvbTEfMB0GCSqGSIb3DQEJARYQaW5mb0B3b2xmc3NsLmNvbTAe
Fw0yMTA3MDQwNDM5MjFaFw0yNDAzMzAwNDM5MjFaMIGXMQswCQYDVQQGEwJVUzET
MBEGA1UECAwKV2FzaGluZ3RvbjEQMA4GA1UEBwwHU2VhdHRsZTEQMA4GA1UECgwH
d29sZlNTTDEUMBIGA1UECwwLRGV2ZWxvcG1lbnQxGDAWBgNVBAMMD3d3dy53b2xm
c3NsLmNvbTEfMB0GCSqGSIb3DQEJARYQaW5mb0B3b2xmc3NsLmNvbTB2MBAGByqG
SM49AgEGBSuBBAAiA2IABO6C1DmasSeC9NfqxrwDHU2DYfQDrn692FqlufCOoqXa
zoc7WqtEFpz1n2Ld9iDNnHY8QLE/lxffWfbN3s1GNcDtXi5ItmaRcXS3DD+5mreD
vZM/X1AtcD/eNSXhkDuG4KNjMGEwHQYDVR0OBBYEFKvgwyZMGNRyu9KEjJwKBZKA
ElNSMB8GA1UdIwQYMBaAFKvgwyZMGNRyu9KEjJwKBZKAElNSMA8GA1UdEwEB/wQF
MAMBAf8wDgYDVR0PAQH/BAQDAgGGMAoGCCqGSM49BAMDA2gAMGUCMQCMoAqIh/uy
RMwEDcrMiYUwBvF68aPMaKB5xwmq8ZiPuAyIsGb99Qs/X6V6X3F/ERgCMAb4x87/
c2rjEwpPYzZ6cU3sYOTF8WRgBegJxXxHCgg1zGk8UBXJdeaswiTUR8Afhw==
-----END CERTIFICATE-----
