Certificate:
    Data:
        Version: 3 (0x2)
        Serial Number:
            e7:0a:2e:91:66:0a:5b:47
    Signature Algorithm: sha256WithRSAEncryption
        Issuer: C=US, ST=Montana, L=Bozeman, O=wolfSSL_2048, OU=RELATIVE_URI, CN=www.wolfssl.com/emailAddress=info@wolfssl.com
        Validity
            Not Before: Jan 21 23:29:23 2023 GMT
            Not After : Oct 17 23:29:23 2025 GMT
        Subject: C=US, ST=Montana, L=Bozeman, O=wolfSSL_2048, OU=RELATIVE_URI, CN=www.wolfssl.com/emailAddress=info@wolfssl.com
        Subject Public Key Info:
            Public Key Algorithm: rsaEncryption
                Public-Key: (2048 bit)
                Modulus:
                    00:c3:03:d1:2b:fe:39:a4:32:45:3b:53:c8:84:2b:
                    2a:7c:74:9a:bd:aa:2a:52:07:47:d6:a6:36:b2:07:
                    32:8e:d0:ba:69:7b:c6:c3:44:9e:d4:81:48:fd:2d:
                    68:a2:8b:67:bb:a1:75:c8:36:2c:4a:d2:1b:f7:8b:
                    ba:cf:0d:f9:ef:ec:f1:81:1e:7b:9b:03:47:9a:bf:
                    65:cc:7f:65:24:69:a6:e8:14:89:5b:e4:34:f7:c5:
                    b0:14:93:f5:67:7b:3a:7a:78:e1:01:56:56:91:a6:
                    13:42:8d:d2:3c:40:9c:4c:ef:d1:86:df:37:51:1b:
                    0c:a1:3b:f5:f1:a3:4a:35:e4:e1:ce:96:df:1b:7e:
                    bf:4e:97:d0:10:e8:a8:08:30:81:af:20:0b:43:14:
                    c5:74:67:b4:32:82:6f:8d:86:c2:88:40:99:36:83:
                    ba:1e:40:72:22:17:d7:52:65:24:73:b0:ce:ef:19:
                    cd:ae:ff:78:6c:7b:c0:12:03:d4:4e:72:0d:50:6d:
                    3b:a3:3b:a3:99:5e:9d:c8:d9:0c:85:b3:d9:8a:d9:
                    54:26:db:6d:fa:ac:bb:ff:25:4c:c4:d1:79:f4:71:
                    d3:86:40:18:13:b0:63:b5:72:4e:30:c4:97:84:86:
                    2d:56:2f:d7:15:f7:7f:c0:ae:f5:fc:5b:e5:fb:a1:
                    ba:d3
                Exponent: 65537 (0x10001)
        X509v3 extensions:
            X509v3 Subject Key Identifier: 
                33:D8:45:66:D7:68:87:18:7E:54:0D:70:27:91:C7:26:D7:85:65:C0
            X509v3 Authority Key Identifier: 
                keyid:33:D8:45:66:D7:68:87:18:7E:54:0D:70:27:91:C7:26:D7:85:65:C0
                DirName:/C=US/ST=Montana/L=Bozeman/O=wolfSSL_2048/OU=RELATIVE_URI/CN=www.wolfssl.com/emailAddress=info@wolfssl.com
                serial:E7:0A:2E:91:66:0A:5B:47

            X509v3 Basic Constraints: 
                CA:FALSE
            X509v3 Subject Alternative Name: 
                URI:../relative/page.html
    Signature Algorithm: sha256WithRSAEncryption
         63:62:19:ad:d5:e9:e9:a4:5a:a9:5a:45:e4:33:98:f2:59:94:
         c9:ec:6e:e2:fb:92:db:c6:23:d3:09:2d:0e:39:8f:6f:be:8f:
         4d:a9:40:54:37:8d:39:9e:7b:a9:17:08:9f:e9:e9:d2:90:26:
         13:40:1f:68:1d:7b:dc:d4:ec:8f:ff:40:ee:f9:98:f2:71:fd:
         26:95:88:d1:45:43:6c:d0:eb:df:88:37:19:39:8f:da:33:15:
         5e:dd:62:a7:97:ff:4b:22:2e:e1:bc:67:f2:4f:c4:f7:b5:e9:
         2e:7b:81:06:23:74:da:f7:63:75:23:d0:6a:4e:01:9f:af:9e:
         81:a3:ff:05:32:67:52:f7:2b:6a:c1:53:a3:33:91:30:52:e9:
         0c:72:1e:24:dc:f2:df:e0:0b:7b:c3:28:c6:31:ba:ce:39:d9:
         ad:3f:72:77:44:ed:a0:78:48:1e:d8:8c:c9:32:6e:aa:09:22:
         e9:27:d0:5a:f7:3c:52:3e:f7:65:1b:ca:ab:47:d1:8c:83:d9:
         96:8c:44:7e:ca:69:11:93:86:e3:e4:80:6e:44:af:a7:48:64:
         f2:4d:af:94:90:e1:ac:ab:a2:50:3d:c2:b6:b1:2b:b7:a7:de:
         e8:d9:9d:fb:5b:1b:4e:bb:1f:1d:d7:89:1c:65:31:35:2b:59:
         2c:4b:e5:92
-----BEGIN CERTIFICATE-----
MIIE3TCCA8WgAwIBAgIJAOcKLpFmCltHMA0GCSqGSIb3DQEBCwUAMIGaMQswCQYD
VQQGEwJVUzEQMA4GA1UECAwHTW9udGFuYTEQMA4GA1UEBwwHQm96ZW1hbjEVMBMG
A1UECgwMd29sZlNTTF8yMDQ4MRUwEwYDVQQLDAxSRUxBVElWRV9VUkkxGDAWBgNV
BAMMD3d3dy53b2xmc3NsLmNvbTEfMB0GCSqGSIb3DQEJARYQaW5mb0B3b2xmc3Ns
LmNvbTAeFw0yMzAxMjEyMzI5MjNaFw0yNTEwMTcyMzI5MjNaMIGaMQswCQYDVQQG
EwJVUzEQMA4GA1UECAwHTW9udGFuYTEQMA4GA1UEBwwHQm96ZW1hbjEVMBMGA1UE
CgwMd29sZlNTTF8yMDQ4MRUwEwYDVQQLDAxSRUxBVElWRV9VUkkxGDAWBgNVBAMM
D3d3dy53b2xmc3NsLmNvbTEfMB0GCSqGSIb3DQEJARYQaW5mb0B3b2xmc3NsLmNv
bTCCASIwDQYJKoZIhvcNAQEBBQADggEPADCCAQoCggEBAMMD0Sv+OaQyRTtTyIQr
Knx0mr2qKlIHR9amNrIHMo7Quml7xsNEntSBSP0taKKLZ7uhdcg2LErSG/eLus8N
+e/s8YEee5sDR5q/Zcx/ZSRppugUiVvkNPfFsBST9Wd7Onp44QFWVpGmE0KN0jxA
nEzv0YbfN1EbDKE79fGjSjXk4c6W3xt+v06X0BDoqAgwga8gC0MUxXRntDKCb42G
wohAmTaDuh5AciIX11JlJHOwzu8Zza7/eGx7wBID1E5yDVBtO6M7o5lencjZDIWz
2YrZVCbbbfqsu/8lTMTRefRx04ZAGBOwY7VyTjDEl4SGLVYv1xX3f8Cu9fxb5fuh
utMCAwEAAaOCASIwggEeMB0GA1UdDgQWBBQz2EVm12iHGH5UDXAnkccm14VlwDCB
zwYDVR0jBIHHMIHEgBQz2EVm12iHGH5UDXAnkccm14VlwKGBoKSBnTCBmjELMAkG
A1UEBhMCVVMxEDAOBgNVBAgMB01vbnRhbmExEDAOBgNVBAcMB0JvemVtYW4xFTAT
BgNVBAoMDHdvbGZTU0xfMjA0ODEVMBMGA1UECwwMUkVMQVRJVkVfVVJJMRgwFgYD
VQQDDA93d3cud29sZnNzbC5jb20xHzAdBgkqhkiG9w0BCQEWEGluZm9Ad29sZnNz
bC5jb22CCQDnCi6RZgpbRzAJBgNVHRMEAjAAMCAGA1UdEQQZMBeGFS4uL3JlbGF0
aXZlL3BhZ2UuaHRtbDANBgkqhkiG9w0BAQsFAAOCAQEAY2IZrdXp6aRaqVpF5DOY
8lmUyexu4vuS28Yj0wktDjmPb76PTalAVDeNOZ57qRcIn+np0pAmE0AfaB173NTs
j/9A7vmY8nH9JpWI0UVDbNDr34g3GTmP2jMVXt1ip5f/SyIu4bxn8k/E97XpLnuB
BiN02vdjdSPQak4Bn6+egaP/BTJnUvcrasFTozORMFLpDHIeJNzy3+ALe8MoxjG6
zjnZrT9yd0TtoHhIHtiMyTJuqgki6SfQWvc8Uj73ZRvKq0fRjIPZloxEfsppEZOG
4+SAbkSvp0hk8k2vlJDhrKuiUD3CtrErt6fe6Nmd+1sbTrsfHdeJHGUxNStZLEvl
kg==
-----END CERTIFICATE-----
