Certificate:
    Data:
        Version: 3 (0x2)
        Serial Number:
            9f:cb:a1:8d:c6:52:09:d1
    Signature Algorithm: sha256WithRSAEncryption
        Issuer: C=US, ST=Montana, L=Bozeman, O=wolfSSL_2048, OU=URI, CN=www.wolfssl.com/emailAddress=info@wolfssl.com
        Validity
            Not Before: Jul  4 04:39:20 2021 GMT
            Not After : Mar 30 04:39:20 2024 GMT
        Subject: C=US, ST=Montana, L=Bozeman, O=wolfSSL_2048, OU=URI, CN=www.wolfssl.com/emailAddress=info@wolfssl.com
        Subject Public Key Info:
            Public Key Algorithm: rsaEncryption
                Public-Key: (2048 bit)
                Modulus:
                    00:c3:03:d1:2b:fe:39:a4:32:45:3b:53:c8:84:2b:
                    2a:7c:74:9a:bd:aa:2a:52:07:47:d6:a6:36:b2:07:
                    32:8e:d0:ba:69:7b:c6:c3:44:9e:d4:81:48:fd:2d:
                    68:a2:8b:67:bb:a1:75:c8:36:2c:4a:d2:1b:f7:8b:
                    ba:cf:0d:f9:ef:ec:f1:81:1e:7b:9b:03:47:9a:bf:
                    65:cc:7f:65:24:69:a6:e8:14:89:5b:e4:34:f7:c5:
                    b0:14:93:f5:67:7b:3a:7a:78:e1:01:56:56:91:a6:
                    13:42:8d:d2:3c:40:9c:4c:ef:d1:86:df:37:51:1b:
                    0c:a1:3b:f5:f1:a3:4a:35:e4:e1:ce:96:df:1b:7e:
                    bf:4e:97:d0:10:e8:a8:08:30:81:af:20:0b:43:14:
                    c5:74:67:b4:32:82:6f:8d:86:c2:88:40:99:36:83:
                    ba:1e:40:72:22:17:d7:52:65:24:73:b0:ce:ef:19:
                    cd:ae:ff:78:6c:7b:c0:12:03:d4:4e:72:0d:50:6d:
                    3b:a3:3b:a3:99:5e:9d:c8:d9:0c:85:b3:d9:8a:d9:
                    54:26:db:6d:fa:ac:bb:ff:25:4c:c4:d1:79:f4:71:
                    d3:86:40:18:13:b0:63:b5:72:4e:30:c4:97:84:86:
                    2d:56:2f:d7:15:f7:7f:c0:ae:f5:fc:5b:e5:fb:a1:
                    ba:d3
                Exponent: 65537 (0x10001)
        X509v3 extensions:
            X509v3 Subject Key Identifier: 
                33:D8:45:66:D7:68:87:18:7E:54:0D:70:27:91:C7:26:D7:85:65:C0
            X509v3 Authority Key Identifier: 
                keyid:33:D8:45:66:D7:68:87:18:7E:54:0D:70:27:91:C7:26:D7:85:65:C0
                DirName:/C=US/ST=Montana/L=Bozeman/O=wolfSSL_2048/OU=URI/CN=www.wolfssl.com/emailAddress=info@wolfssl.com
                serial:9F:CB:A1:8D:C6:52:09:D1

            X509v3 Basic Constraints: 
                CA:FALSE
            X509v3 Subject Alternative Name: 
                URI:https://www.wolfssl.com
    Signature Algorithm: sha256WithRSAEncryption
         84:10:a0:53:c3:f1:64:0f:85:24:c3:72:24:22:e9:dc:e8:dd:
         65:63:86:4a:f6:98:cc:ea:4a:31:5e:54:2e:50:ec:4c:15:f7:
         9f:3e:51:36:fb:a5:a3:4a:8f:a9:99:40:27:94:7f:da:ce:e7:
         91:23:c5:dc:eb:cd:da:f1:48:8a:47:4a:29:8e:4f:76:3a:92:
         46:2c:55:54:14:d9:2a:6c:cf:4c:64:86:9f:39:6e:07:a8:fb:
         b8:9c:51:c3:bb:ba:56:95:6f:a3:a2:52:92:dd:56:f0:eb:ec:
         e0:0f:18:03:3d:a8:e9:50:0a:f4:e0:75:0d:cc:e8:9b:b7:bd:
         ff:d1:1e:0d:34:8b:19:7b:88:6e:2b:71:2d:7b:a6:40:32:b8:
         5f:19:63:23:e5:df:8e:30:28:71:7a:b9:5e:36:dc:f3:52:7e:
         e7:e6:03:eb:93:ac:1d:a4:4b:e8:41:75:5d:bb:cf:48:6d:50:
         75:a6:f4:b9:8b:e2:c6:aa:f3:b3:9a:ef:a6:8d:01:6c:92:12:
         c1:08:31:55:9f:38:88:ee:f8:69:3b:c7:7a:d6:d2:50:f8:20:
         25:1a:42:56:75:43:28:a1:0f:7c:e9:4a:58:ed:89:1a:af:05:
         64:c1:98:45:28:ed:ac:a6:11:bf:16:e8:c8:6a:2e:8c:19:74:
         e3:01:1e:0a
-----BEGIN CERTIFICATE-----
MIIExDCCA6ygAwIBAgIJAJ/LoY3GUgnRMA0GCSqGSIb3DQEBCwUAMIGRMQswCQYD
VQQGEwJVUzEQMA4GA1UECAwHTW9udGFuYTEQMA4GA1UEBwwHQm96ZW1hbjEVMBMG
A1UECgwMd29sZlNTTF8yMDQ4MQwwCgYDVQQLDANVUkkxGDAWBgNVBAMMD3d3dy53
b2xmc3NsLmNvbTEfMB0GCSqGSIb3DQEJARYQaW5mb0B3b2xmc3NsLmNvbTAeFw0y
MTA3MDQwNDM5MjBaFw0yNDAzMzAwNDM5MjBaMIGRMQswCQYDVQQGEwJVUzEQMA4G
A1UECAwHTW9udGFuYTEQMA4GA1UEBwwHQm96ZW1hbjEVMBMGA1UECgwMd29sZlNT
TF8yMDQ4MQwwCgYDVQQLDANVUkkxGDAWBgNVBAMMD3d3dy53b2xmc3NsLmNvbTEf
MB0GCSqGSIb3DQEJARYQaW5mb0B3b2xmc3NsLmNvbTCCASIwDQYJKoZIhvcNAQEB
BQADggEPADCCAQoCggEBAMMD0Sv+OaQyRTtTyIQrKnx0mr2qKlIHR9amNrIHMo7Q
uml7xsNEntSBSP0taKKLZ7uhdcg2LErSG/eLus8N+e/s8YEee5sDR5q/Zcx/ZSRp
pugUiVvkNPfFsBST9Wd7Onp44QFWVpGmE0KN0jxAnEzv0YbfN1EbDKE79fGjSjXk
4c6W3xt+v06X0BDoqAgwga8gC0MUxXRntDKCb42GwohAmTaDuh5AciIX11JlJHOw
zu8Zza7/eGx7wBID1E5yDVBtO6M7o5lencjZDIWz2YrZVCbbbfqsu/8lTMTRefRx
04ZAGBOwY7VyTjDEl4SGLVYv1xX3f8Cu9fxb5fuhutMCAwEAAaOCARswggEXMB0G
A1UdDgQWBBQz2EVm12iHGH5UDXAnkccm14VlwDCBxgYDVR0jBIG+MIG7gBQz2EVm
12iHGH5UDXAnkccm14VlwKGBl6SBlDCBkTELMAkGA1UEBhMCVVMxEDAOBgNVBAgM
B01vbnRhbmExEDAOBgNVBAcMB0JvemVtYW4xFTATBgNVBAoMDHdvbGZTU0xfMjA0
ODEMMAoGA1UECwwDVVJJMRgwFgYDVQQDDA93d3cud29sZnNzbC5jb20xHzAdBgkq
hkiG9w0BCQEWEGluZm9Ad29sZnNzbC5jb22CCQCfy6GNxlIJ0TAJBgNVHRMEAjAA
MCIGA1UdEQQbMBmGF2h0dHBzOi8vd3d3LndvbGZzc2wuY29tMA0GCSqGSIb3DQEB
CwUAA4IBAQCEEKBTw/FkD4Ukw3IkIunc6N1lY4ZK9pjM6koxXlQuUOxMFfefPlE2
+6WjSo+pmUAnlH/azueRI8Xc683a8UiKR0opjk92OpJGLFVUFNkqbM9MZIafOW4H
qPu4nFHDu7pWlW+jolKS3Vbw6+zgDxgDPajpUAr04HUNzOibt73/0R4NNIsZe4hu
K3Ete6ZAMrhfGWMj5d+OMChxerleNtzzUn7n5gPrk6wdpEvoQXVdu89IbVB1pvS5
i+LGqvOzmu+mjQFskhLBCDFVnziI7vhpO8d61tJQ+CAlGkJWdUMooQ986UpY7Yka
rwVkwZhFKO2sphG/FujIai6MGXTjAR4K
-----END CERTIFICATE-----
