Certificate:
    Data:
        Version: 3 (0x2)
        Serial Number:
            b6:38:b4:cf:da:96:0c:0e
    Signature Algorithm: ecdsa-with-SHA256
        Issuer: C=US, ST=Oregon, L=Salem, O=Client ECC, OU=Fast, CN=www.wolfssl.com/emailAddress=info@wolfssl.com
        Validity
            Not Before: Jul  4 04:39:21 2021 GMT
            Not After : Mar 30 04:39:21 2024 GMT
        Subject: C=US, ST=Oregon, L=Salem, O=Client ECC, OU=Fast, CN=www.wolfssl.com/emailAddress=info@wolfssl.com
        Subject Public Key Info:
            Public Key Algorithm: id-ecPublicKey
                Public-Key: (256 bit)
                pub: 
                    04:55:bf:f4:0f:44:50:9a:3d:ce:9b:b7:f0:c5:4d:
                    f5:70:7b:d4:ec:24:8e:19:80:ec:5a:4c:a2:24:03:
                    62:2c:9b:da:ef:a2:35:12:43:84:76:16:c6:56:95:
                    06:cc:01:a9:bd:f6:75:1a:42:f7:bd:a9:b2:36:22:
                    5f:c7:5d:7f:b4
                ASN1 OID: prime256v1
                NIST CURVE: P-256
        X509v3 extensions:
            X509v3 Subject Key Identifier: 
                EB:D4:4B:59:6B:95:61:3F:51:57:B6:04:4D:89:41:88:44:5C:AB:F2
            X509v3 Authority Key Identifier: 
                keyid:EB:D4:4B:59:6B:95:61:3F:51:57:B6:04:4D:89:41:88:44:5C:AB:F2
                DirName:/C=US/ST=Oregon/L=Salem/O=Client ECC/OU=Fast/CN=www.wolfssl.com/emailAddress=info@wolfssl.com
                serial:B6:38:B4:CF:DA:96:0C:0E

            X509v3 Basic Constraints: 
                CA:TRUE
    Signature Algorithm: ecdsa-with-SHA256
         30:45:02:21:00:f2:2c:7c:8c:11:fb:6c:a5:f2:40:75:a6:af:
         2f:91:d1:57:ed:bc:06:8f:23:a5:cc:1d:24:92:66:81:35:cc:
         2e:02:20:07:ac:5f:0b:89:d4:0c:80:28:5f:12:a8:d9:2d:8c:
         a8:f3:f2:60:a4:05:d3:34:8f:81:4b:34:71:85:56:c6:16
-----BEGIN CERTIFICATE-----
MIIDCTCCAq+gAwIBAgIJALY4tM/algwOMAoGCCqGSM49BAMCMIGNMQswCQYDVQQG
EwJVUzEPMA0GA1UECAwGT3JlZ29uMQ4wDAYDVQQHDAVTYWxlbTETMBEGA1UECgwK
Q2xpZW50IEVDQzENMAsGA1UECwwERmFzdDEYMBYGA1UEAwwPd3d3LndvbGZzc2wu
Y29tMR8wHQYJKoZIhvcNAQkBFhBpbmZvQHdvbGZzc2wuY29tMB4XDTIxMDcwNDA0
MzkyMVoXDTI0MDMzMDA0MzkyMVowgY0xCzAJBgNVBAYTAlVTMQ8wDQYDVQQIDAZP
cmVnb24xDjAMBgNVBAcMBVNhbGVtMRMwEQYDVQQKDApDbGllbnQgRUNDMQ0wCwYD
VQQLDARGYXN0MRgwFgYDVQQDDA93d3cud29sZnNzbC5jb20xHzAdBgkqhkiG9w0B
CQEWEGluZm9Ad29sZnNzbC5jb20wWTATBgcqhkjOPQIBBggqhkjOPQMBBwNCAARV
v/QPRFCaPc6bt/DFTfVwe9TsJI4ZgOxaTKIkA2Ism9rvojUSQ4R2FsZWlQbMAam9
9nUaQve9qbI2Il/HXX+0o4H1MIHyMB0GA1UdDgQWBBTr1EtZa5VhP1FXtgRNiUGI
RFyr8jCBwgYDVR0jBIG6MIG3gBTr1EtZa5VhP1FXtgRNiUGIRFyr8qGBk6SBkDCB
jTELMAkGA1UEBhMCVVMxDzANBgNVBAgMBk9yZWdvbjEOMAwGA1UEBwwFU2FsZW0x
EzARBgNVBAoMCkNsaWVudCBFQ0MxDTALBgNVBAsMBEZhc3QxGDAWBgNVBAMMD3d3
dy53b2xmc3NsLmNvbTEfMB0GCSqGSIb3DQEJARYQaW5mb0B3b2xmc3NsLmNvbYIJ
ALY4tM/algwOMAwGA1UdEwQFMAMBAf8wCgYIKoZIzj0EAwIDSAAwRQIhAPIsfIwR
+2yl8kB1pq8vkdFX7bwGjyOlzB0kkmaBNcwuAiAHrF8LidQMgChfEqjZLYyo8/Jg
pAXTNI+BSzRxhVbGFg==
-----END CERTIFICATE-----
