Certificate:
    Data:
        Version: 3 (0x2)
        Serial Number:
            d8:41:44:73:d2:50:0f:68
    Signature Algorithm: sha256WithRSAEncryption
        Issuer: C=US, ST=Montana, L=Bozeman, O=wolfSSL_2048, OU=URI, CN=www.wolfssl.com/emailAddress=info@wolfssl.com
        Validity
            Not Before: Jan 21 23:29:23 2023 GMT
            Not After : Oct 17 23:29:23 2025 GMT
        Subject: C=US, ST=Montana, L=Bozeman, O=wolfSSL_2048, OU=URI, CN=www.wolfssl.com/emailAddress=info@wolfssl.com
        Subject Public Key Info:
            Public Key Algorithm: rsaEncryption
                Public-Key: (2048 bit)
                Modulus:
                    00:c3:03:d1:2b:fe:39:a4:32:45:3b:53:c8:84:2b:
                    2a:7c:74:9a:bd:aa:2a:52:07:47:d6:a6:36:b2:07:
                    32:8e:d0:ba:69:7b:c6:c3:44:9e:d4:81:48:fd:2d:
                    68:a2:8b:67:bb:a1:75:c8:36:2c:4a:d2:1b:f7:8b:
                    ba:cf:0d:f9:ef:ec:f1:81:1e:7b:9b:03:47:9a:bf:
                    65:cc:7f:65:24:69:a6:e8:14:89:5b:e4:34:f7:c5:
                    b0:14:93:f5:67:7b:3a:7a:78:e1:01:56:56:91:a6:
                    13:42:8d:d2:3c:40:9c:4c:ef:d1:86:df:37:51:1b:
                    0c:a1:3b:f5:f1:a3:4a:35:e4:e1:ce:96:df:1b:7e:
                    bf:4e:97:d0:10:e8:a8:08:30:81:af:20:0b:43:14:
                    c5:74:67:b4:32:82:6f:8d:86:c2:88:40:99:36:83:
                    ba:1e:40:72:22:17:d7:52:65:24:73:b0:ce:ef:19:
                    cd:ae:ff:78:6c:7b:c0:12:03:d4:4e:72:0d:50:6d:
                    3b:a3:3b:a3:99:5e:9d:c8:d9:0c:85:b3:d9:8a:d9:
                    54:26:db:6d:fa:ac:bb:ff:25:4c:c4:d1:79:f4:71:
                    d3:86:40:18:13:b0:63:b5:72:4e:30:c4:97:84:86:
                    2d:56:2f:d7:15:f7:7f:c0:ae:f5:fc:5b:e5:fb:a1:
                    ba:d3
                Exponent: 65537 (0x10001)
        X509v3 extensions:
            X509v3 Subject Key Identifier: 
                33:D8:45:66:D7:68:87:18:7E:54:0D:70:27:91:C7:26:D7:85:65:C0
            X509v3 Authority Key Identifier: 
                keyid:33:D8:45:66:D7:68:87:18:7E:54:0D:70:27:91:C7:26:D7:85:65:C0
                DirName:/C=US/ST=Montana/L=Bozeman/O=wolfSSL_2048/OU=URI/CN=www.wolfssl.com/emailAddress=info@wolfssl.com
                serial:D8:41:44:73:D2:50:0F:68

            X509v3 Basic Constraints: 
                CA:FALSE
            X509v3 Subject Alternative Name: 
                URI:https://www.wolfssl.com
    Signature Algorithm: sha256WithRSAEncryption
         3b:6f:bf:ce:b6:20:75:02:37:65:5f:eb:fa:a3:38:26:a9:8b:
         46:37:ab:db:b8:78:23:2d:98:ca:c4:00:ee:98:fe:0e:ee:ed:
         70:a4:bd:c1:bd:a8:40:9b:57:be:f3:45:0f:19:c3:1b:f0:88:
         28:e9:97:be:59:ec:ea:49:c5:fa:ec:7b:ef:43:45:aa:07:59:
         0d:5f:0b:1c:68:18:d1:09:23:45:03:58:49:72:03:c2:c0:5f:
         cc:85:4e:5a:e0:88:26:23:07:25:ce:a9:16:23:b6:94:dc:48:
         1a:8e:bf:62:da:69:38:89:23:21:9a:fb:94:22:cd:93:2d:c8:
         1a:9e:8c:eb:01:96:ca:30:27:8c:0e:58:4e:c7:82:7a:9f:0a:
         d4:0f:42:01:57:3f:ad:15:3d:72:49:0a:ee:8a:6f:8c:cd:51:
         0d:88:94:eb:f2:58:c2:3d:f7:5f:ee:11:40:7a:26:ef:98:b8:
         e8:6f:8b:96:79:17:9b:fb:32:81:e2:d7:25:cd:63:d5:68:87:
         1c:ec:ef:64:e2:82:57:62:ba:2f:43:3f:fd:d7:ff:e9:91:fe:
         f7:b5:e0:c7:8b:15:1a:df:23:1e:3e:1e:1b:42:b5:25:22:01:
         24:2f:7e:23:77:03:17:2f:b8:9a:ab:91:b4:70:b7:fe:d3:88:
         96:cb:d4:ac
-----BEGIN CERTIFICATE-----
MIIExDCCA6ygAwIBAgIJANhBRHPSUA9oMA0GCSqGSIb3DQEBCwUAMIGRMQswCQYD
VQQGEwJVUzEQMA4GA1UECAwHTW9udGFuYTEQMA4GA1UEBwwHQm96ZW1hbjEVMBMG
A1UECgwMd29sZlNTTF8yMDQ4MQwwCgYDVQQLDANVUkkxGDAWBgNVBAMMD3d3dy53
b2xmc3NsLmNvbTEfMB0GCSqGSIb3DQEJARYQaW5mb0B3b2xmc3NsLmNvbTAeFw0y
MzAxMjEyMzI5MjNaFw0yNTEwMTcyMzI5MjNaMIGRMQswCQYDVQQGEwJVUzEQMA4G
A1UECAwHTW9udGFuYTEQMA4GA1UEBwwHQm96ZW1hbjEVMBMGA1UECgwMd29sZlNT
TF8yMDQ4MQwwCgYDVQQLDANVUkkxGDAWBgNVBAMMD3d3dy53b2xmc3NsLmNvbTEf
MB0GCSqGSIb3DQEJARYQaW5mb0B3b2xmc3NsLmNvbTCCASIwDQYJKoZIhvcNAQEB
BQADggEPADCCAQoCggEBAMMD0Sv+OaQyRTtTyIQrKnx0mr2qKlIHR9amNrIHMo7Q
uml7xsNEntSBSP0taKKLZ7uhdcg2LErSG/eLus8N+e/s8YEee5sDR5q/Zcx/ZSRp
pugUiVvkNPfFsBST9Wd7Onp44QFWVpGmE0KN0jxAnEzv0YbfN1EbDKE79fGjSjXk
4c6W3xt+v06X0BDoqAgwga8gC0MUxXRntDKCb42GwohAmTaDuh5AciIX11JlJHOw
zu8Zza7/eGx7wBID1E5yDVBtO6M7o5lencjZDIWz2YrZVCbbbfqsu/8lTMTRefRx
04ZAGBOwY7VyTjDEl4SGLVYv1xX3f8Cu9fxb5fuhutMCAwEAAaOCARswggEXMB0G
A1UdDgQWBBQz2EVm12iHGH5UDXAnkccm14VlwDCBxgYDVR0jBIG+MIG7gBQz2EVm
12iHGH5UDXAnkccm14VlwKGBl6SBlDCBkTELMAkGA1UEBhMCVVMxEDAOBgNVBAgM
B01vbnRhbmExEDAOBgNVBAcMB0JvemVtYW4xFTATBgNVBAoMDHdvbGZTU0xfMjA0
ODEMMAoGA1UECwwDVVJJMRgwFgYDVQQDDA93d3cud29sZnNzbC5jb20xHzAdBgkq
hkiG9w0BCQEWEGluZm9Ad29sZnNzbC5jb22CCQDYQURz0lAPaDAJBgNVHRMEAjAA
MCIGA1UdEQQbMBmGF2h0dHBzOi8vd3d3LndvbGZzc2wuY29tMA0GCSqGSIb3DQEB
CwUAA4IBAQA7b7/OtiB1AjdlX+v6ozgmqYtGN6vbuHgjLZjKxADumP4O7u1wpL3B
vahAm1e+80UPGcMb8Igo6Ze+WezqScX67HvvQ0WqB1kNXwscaBjRCSNFA1hJcgPC
wF/MhU5a4IgmIwclzqkWI7aU3Egajr9i2mk4iSMhmvuUIs2TLcganozrAZbKMCeM
DlhOx4J6nwrUD0IBVz+tFT1ySQruim+MzVENiJTr8ljCPfdf7hFAeibvmLjob4uW
eReb+zKB4tclzWPVaIcc7O9k4oJXYrovQz/91//pkf73teDHixUa3yMePh4bQrUl
IgEkL34jdwMXL7iaq5G0cLf+04iWy9Ss
-----END CERTIFICATE-----
