Certificate:
    Data:
        Version: 3 (0x2)
        Serial Number:
            9d:6c:ab:ee:ed:70:4d:7d
    Signature Algorithm: sha256WithRSAEncryption
        Issuer: C=US, ST=Montana, L=Bozeman, O=wolfSSL_3072, OU=Programming-3072, CN=www.wolfssl.com/emailAddress=info@wolfssl.com
        Validity
            Not Before: Jul  4 04:39:21 2021 GMT
            Not After : Mar 30 04:39:21 2024 GMT
        Subject: C=US, ST=Montana, L=Bozeman, O=wolfSSL_3072, OU=Programming-3072, CN=www.wolfssl.com/emailAddress=info@wolfssl.com
        Subject Public Key Info:
            Public Key Algorithm: rsaEncryption
                Public-Key: (3072 bit)
                Modulus:
                    00:ac:5f:92:c8:0f:27:aa:f0:76:bd:d2:7c:c1:d4:
                    18:ab:22:03:8d:fc:9f:f5:ea:b7:be:7c:9f:ca:e7:
                    01:82:59:ed:d4:4c:13:d0:46:96:6d:9e:20:08:79:
                    59:5b:ad:c6:18:ce:e1:ce:82:58:62:6a:f8:56:8a:
                    eb:e3:06:b1:10:a9:82:0b:1d:61:8f:fd:80:e7:14:
                    73:e2:2a:fd:7c:73:16:b8:d3:78:15:93:1a:cd:70:
                    c2:27:f6:b4:d6:96:0a:3d:f9:14:ef:69:fb:57:75:
                    81:28:1a:30:c2:fc:47:9e:20:bd:ea:53:6d:71:78:
                    c4:29:75:bc:c9:fd:c6:3d:87:1a:ae:07:3b:32:83:
                    7c:7e:eb:02:29:87:ca:12:64:89:a9:eb:6f:dd:c4:
                    2f:d7:10:dc:84:92:33:92:94:74:27:d0:7d:b0:56:
                    7f:27:d8:22:4d:9b:05:d3:de:42:b7:b7:f8:10:31:
                    5e:90:1d:9f:59:15:27:ab:21:79:a9:85:c7:a2:96:
                    0c:e7:25:8f:a2:75:a7:cb:2a:5f:7d:e8:83:7b:b8:
                    42:37:b9:75:31:31:b7:65:01:10:3d:1a:fe:17:ef:
                    25:22:24:79:92:a4:7f:c5:af:6e:56:e7:34:53:36:
                    88:9e:61:c2:09:9f:44:ad:55:ec:71:92:2d:3f:fb:
                    8c:61:a1:a0:23:c5:b7:35:28:29:7a:94:02:21:22:
                    25:14:e4:bd:fe:dd:64:cb:30:3f:6f:fd:0a:52:c8:
                    9c:e6:79:eb:a3:c3:e8:d8:57:a2:fc:6a:02:00:10:
                    4c:a5:64:c5:75:fe:b6:02:1f:5e:06:29:5e:ca:af:
                    a6:eb:23:58:43:60:fb:6d:a2:c4:d0:3c:b0:17:b0:
                    83:da:26:fb:e1:b3:bf:f0:4b:78:3a:93:ca:31:17:
                    02:49:61:a2:7f:80:60:64:f2:bb:79:3e:8c:3b:d3:
                    af:21:e9:4f:cd:3c:c4:7b:25:4d:38:6a:27:29:62:
                    4f:4b:99:c4:78:e3:2c:61:0a:9d
                Exponent: 65537 (0x10001)
        X509v3 extensions:
            X509v3 Subject Key Identifier: 
                58:36:0A:E6:2E:86:E7:CA:4C:B0:BA:98:81:71:A9:F1:03:75:E7:4C
            X509v3 Authority Key Identifier: 
                keyid:58:36:0A:E6:2E:86:E7:CA:4C:B0:BA:98:81:71:A9:F1:03:75:E7:4C
                DirName:/C=US/ST=Montana/L=Bozeman/O=wolfSSL_3072/OU=Programming-3072/CN=www.wolfssl.com/emailAddress=info@wolfssl.com
                serial:9D:6C:AB:EE:ED:70:4D:7D

            X509v3 Basic Constraints: 
                CA:TRUE
    Signature Algorithm: sha256WithRSAEncryption
         82:bd:7f:42:9c:6c:7e:d7:12:d0:f9:93:51:9f:92:b2:f9:89:
         30:79:82:1b:23:d3:4b:b2:18:f0:87:71:7e:3e:09:e5:e7:2b:
         00:b4:aa:e9:e5:1f:b0:53:78:51:4f:cd:2d:5c:c1:a0:ac:c7:
         89:43:24:6d:58:8a:82:a5:b1:47:6b:4c:a5:bb:69:1e:96:30:
         1a:bc:d3:78:ee:7b:59:b6:50:e2:03:c3:2e:0f:90:c9:bb:d5:
         42:ef:2f:2f:b8:63:63:57:b5:e0:42:21:ad:49:9a:77:7c:8a:
         cc:0b:7c:8e:66:2d:a1:27:5b:89:28:6d:ff:ff:e1:00:42:0c:
         de:40:24:3f:18:96:17:96:a0:93:b6:2f:82:3b:94:9f:ff:66:
         9b:24:ff:de:45:dd:d3:e3:58:16:0e:61:ab:6e:8f:34:94:1a:
         69:5d:a0:7b:57:67:d6:6a:1b:99:2a:7e:8e:15:c7:07:c8:d6:
         f3:00:89:fc:5b:49:ab:8b:d3:54:5d:9e:8d:60:86:b9:a3:1d:
         c4:1b:94:39:dc:36:39:ab:8b:41:da:7c:2c:2a:d8:0a:e1:bc:
         8e:10:6f:a2:16:f0:f3:72:b2:e3:8f:ff:58:1e:ec:19:7e:8b:
         1c:e6:75:f4:0c:47:64:40:71:bf:3a:ae:e7:81:c1:08:bb:ee:
         77:91:8e:f9:23:07:27:74:27:4c:b4:dc:23:79:a6:79:14:83:
         16:55:e2:39:5e:30:10:f8:94:88:81:2b:1a:a8:b3:45:e4:02:
         05:c6:29:17:73:a5:a7:af:a7:3a:30:83:63:7b:14:08:53:5d:
         21:15:06:bd:59:10:10:45:f0:39:a7:b1:57:67:0a:a0:2a:f9:
         ed:89:4b:c9:cc:ac:fa:6c:71:50:21:b8:49:ec:95:a9:ae:02:
         f2:bb:ff:e7:41:fc:7b:33:c2:8f:89:bc:73:53:3f:fb:ba:f0:
         40:59:6f:96:40:e5:2c:c4:33:a0:04:7a:95:33:21:f9:99:91:
         4f:b1:3a:1d:97:41
-----BEGIN CERTIFICATE-----
MIIFyjCCBDKgAwIBAgIJAJ1sq+7tcE19MA0GCSqGSIb3DQEBCwUAMIGeMQswCQYD
VQQGEwJVUzEQMA4GA1UECAwHTW9udGFuYTEQMA4GA1UEBwwHQm96ZW1hbjEVMBMG
A1UECgwMd29sZlNTTF8zMDcyMRkwFwYDVQQLDBBQcm9ncmFtbWluZy0zMDcyMRgw
FgYDVQQDDA93d3cud29sZnNzbC5jb20xHzAdBgkqhkiG9w0BCQEWEGluZm9Ad29s
ZnNzbC5jb20wHhcNMjEwNzA0MDQzOTIxWhcNMjQwMzMwMDQzOTIxWjCBnjELMAkG
A1UEBhMCVVMxEDAOBgNVBAgMB01vbnRhbmExEDAOBgNVBAcMB0JvemVtYW4xFTAT
BgNVBAoMDHdvbGZTU0xfMzA3MjEZMBcGA1UECwwQUHJvZ3JhbW1pbmctMzA3MjEY
MBYGA1UEAwwPd3d3LndvbGZzc2wuY29tMR8wHQYJKoZIhvcNAQkBFhBpbmZvQHdv
bGZzc2wuY29tMIIBojANBgkqhkiG9w0BAQEFAAOCAY8AMIIBigKCAYEArF+SyA8n
qvB2vdJ8wdQYqyIDjfyf9eq3vnyfyucBglnt1EwT0EaWbZ4gCHlZW63GGM7hzoJY
Ymr4Vorr4waxEKmCCx1hj/2A5xRz4ir9fHMWuNN4FZMazXDCJ/a01pYKPfkU72n7
V3WBKBowwvxHniC96lNtcXjEKXW8yf3GPYcargc7MoN8fusCKYfKEmSJqetv3cQv
1xDchJIzkpR0J9B9sFZ/J9giTZsF095Ct7f4EDFekB2fWRUnqyF5qYXHopYM5yWP
onWnyypffeiDe7hCN7l1MTG3ZQEQPRr+F+8lIiR5kqR/xa9uVuc0UzaInmHCCZ9E
rVXscZItP/uMYaGgI8W3NSgpepQCISIlFOS9/t1kyzA/b/0KUsic5nnro8Po2Fei
/GoCABBMpWTFdf62Ah9eBileyq+m6yNYQ2D7baLE0DywF7CD2ib74bO/8Et4OpPK
MRcCSWGif4BgZPK7eT6MO9OvIelPzTzEeyVNOGonKWJPS5nEeOMsYQqdAgMBAAGj
ggEHMIIBAzAdBgNVHQ4EFgQUWDYK5i6G58pMsLqYgXGp8QN150wwgdMGA1UdIwSB
yzCByIAUWDYK5i6G58pMsLqYgXGp8QN150yhgaSkgaEwgZ4xCzAJBgNVBAYTAlVT
MRAwDgYDVQQIDAdNb250YW5hMRAwDgYDVQQHDAdCb3plbWFuMRUwEwYDVQQKDAx3
b2xmU1NMXzMwNzIxGTAXBgNVBAsMEFByb2dyYW1taW5nLTMwNzIxGDAWBgNVBAMM
D3d3dy53b2xmc3NsLmNvbTEfMB0GCSqGSIb3DQEJARYQaW5mb0B3b2xmc3NsLmNv
bYIJAJ1sq+7tcE19MAwGA1UdEwQFMAMBAf8wDQYJKoZIhvcNAQELBQADggGBAIK9
f0KcbH7XEtD5k1GfkrL5iTB5ghsj00uyGPCHcX4+CeXnKwC0qunlH7BTeFFPzS1c
waCsx4lDJG1YioKlsUdrTKW7aR6WMBq803jue1m2UOIDwy4PkMm71ULvLy+4Y2NX
teBCIa1Jmnd8iswLfI5mLaEnW4kobf//4QBCDN5AJD8YlheWoJO2L4I7lJ//Zpsk
/95F3dPjWBYOYatujzSUGmldoHtXZ9ZqG5kqfo4VxwfI1vMAifxbSauL01Rdno1g
hrmjHcQblDncNjmri0HafCwq2ArhvI4Qb6IW8PNysuOP/1ge7Bl+ixzmdfQMR2RA
cb86rueBwQi77neRjvkjByd0J0y03CN5pnkUgxZV4jleMBD4lIiBKxqos0XkAgXG
KRdzpaevpzowg2N7FAhTXSEVBr1ZEBBF8DmnsVdnCqAq+e2JS8nMrPpscVAhuEns
lamuAvK7/+dB/Hszwo+JvHNTP/u68EBZb5ZA5SzEM6AEepUzIfmZkU+xOh2XQQ==
-----END CERTIFICATE-----
