Certificate:
    Data:
        Version: 3 (0x2)
        Serial Number:
            cb:39:66:e4:58:f1:ec:c6
    Signature Algorithm: sha256WithRSAEncryption
        Issuer: C=US, ST=Montana, L=Bozeman, O=wolfSSL_2048, OU=RELATIVE_URI, CN=www.wolfssl.com/emailAddress=info@wolfssl.com
        Validity
            Not Before: Jul  4 04:39:21 2021 GMT
            Not After : Mar 30 04:39:21 2024 GMT
        Subject: C=US, ST=Montana, L=Bozeman, O=wolfSSL_2048, OU=RELATIVE_URI, CN=www.wolfssl.com/emailAddress=info@wolfssl.com
        Subject Public Key Info:
            Public Key Algorithm: rsaEncryption
                Public-Key: (2048 bit)
                Modulus:
                    00:c3:03:d1:2b:fe:39:a4:32:45:3b:53:c8:84:2b:
                    2a:7c:74:9a:bd:aa:2a:52:07:47:d6:a6:36:b2:07:
                    32:8e:d0:ba:69:7b:c6:c3:44:9e:d4:81:48:fd:2d:
                    68:a2:8b:67:bb:a1:75:c8:36:2c:4a:d2:1b:f7:8b:
                    ba:cf:0d:f9:ef:ec:f1:81:1e:7b:9b:03:47:9a:bf:
                    65:cc:7f:65:24:69:a6:e8:14:89:5b:e4:34:f7:c5:
                    b0:14:93:f5:67:7b:3a:7a:78:e1:01:56:56:91:a6:
                    13:42:8d:d2:3c:40:9c:4c:ef:d1:86:df:37:51:1b:
                    0c:a1:3b:f5:f1:a3:4a:35:e4:e1:ce:96:df:1b:7e:
                    bf:4e:97:d0:10:e8:a8:08:30:81:af:20:0b:43:14:
                    c5:74:67:b4:32:82:6f:8d:86:c2:88:40:99:36:83:
                    ba:1e:40:72:22:17:d7:52:65:24:73:b0:ce:ef:19:
                    cd:ae:ff:78:6c:7b:c0:12:03:d4:4e:72:0d:50:6d:
                    3b:a3:3b:a3:99:5e:9d:c8:d9:0c:85:b3:d9:8a:d9:
                    54:26:db:6d:fa:ac:bb:ff:25:4c:c4:d1:79:f4:71:
                    d3:86:40:18:13:b0:63:b5:72:4e:30:c4:97:84:86:
                    2d:56:2f:d7:15:f7:7f:c0:ae:f5:fc:5b:e5:fb:a1:
                    ba:d3
                Exponent: 65537 (0x10001)
        X509v3 extensions:
            X509v3 Subject Key Identifier: 
                33:D8:45:66:D7:68:87:18:7E:54:0D:70:27:91:C7:26:D7:85:65:C0
            X509v3 Authority Key Identifier: 
                keyid:33:D8:45:66:D7:68:87:18:7E:54:0D:70:27:91:C7:26:D7:85:65:C0
                DirName:/C=US/ST=Montana/L=Bozeman/O=wolfSSL_2048/OU=RELATIVE_URI/CN=www.wolfssl.com/emailAddress=info@wolfssl.com
                serial:CB:39:66:E4:58:F1:EC:C6

            X509v3 Basic Constraints: 
                CA:FALSE
            X509v3 Subject Alternative Name: 
                URI:../relative/page.html
    Signature Algorithm: sha256WithRSAEncryption
         14:da:32:2f:4e:88:f3:d1:b5:7a:0e:32:dc:3d:53:5c:de:2a:
         e0:bf:7f:88:14:83:e5:62:56:9b:df:6a:d3:d4:38:4f:9a:57:
         2e:26:66:a6:2b:dc:99:93:93:c8:1e:87:75:f2:da:70:a1:01:
         31:42:95:dc:9e:f4:17:59:52:ed:9d:a9:57:64:9a:f0:a9:61:
         9d:f3:a7:bf:6b:ee:aa:25:b7:58:5d:2f:cf:f9:6e:2c:e2:0a:
         2d:8f:50:70:58:2b:f9:bc:86:80:73:3a:e1:1b:0d:7d:af:27:
         b0:c4:e1:8c:fc:90:83:f9:87:1b:9b:3e:48:2d:53:9b:01:8b:
         da:4f:9f:c5:f6:86:e6:b6:8e:3c:5f:d9:80:56:e4:9d:47:29:
         6a:88:6a:e8:a5:c7:ed:67:bf:16:23:dd:eb:42:cd:36:d9:c6:
         41:0d:97:d6:0b:f4:36:d1:b6:86:5c:19:0b:fb:c2:9a:7c:31:
         3c:58:11:3a:20:40:cf:00:b8:02:af:57:c6:18:0c:9f:85:7c:
         e1:34:9e:dc:64:82:66:99:d0:55:f5:f7:cf:7a:ab:7b:43:33:
         6f:71:e7:78:dc:5a:27:cb:0f:58:17:6e:d1:c9:6d:a3:a3:50:
         1f:63:1f:37:6c:1c:4c:75:8b:cf:1d:a5:1d:22:1b:50:90:02:
         78:84:cd:f8
-----BEGIN CERTIFICATE-----
MIIE3TCCA8WgAwIBAgIJAMs5ZuRY8ezGMA0GCSqGSIb3DQEBCwUAMIGaMQswCQYD
VQQGEwJVUzEQMA4GA1UECAwHTW9udGFuYTEQMA4GA1UEBwwHQm96ZW1hbjEVMBMG
A1UECgwMd29sZlNTTF8yMDQ4MRUwEwYDVQQLDAxSRUxBVElWRV9VUkkxGDAWBgNV
BAMMD3d3dy53b2xmc3NsLmNvbTEfMB0GCSqGSIb3DQEJARYQaW5mb0B3b2xmc3Ns
LmNvbTAeFw0yMTA3MDQwNDM5MjFaFw0yNDAzMzAwNDM5MjFaMIGaMQswCQYDVQQG
EwJVUzEQMA4GA1UECAwHTW9udGFuYTEQMA4GA1UEBwwHQm96ZW1hbjEVMBMGA1UE
CgwMd29sZlNTTF8yMDQ4MRUwEwYDVQQLDAxSRUxBVElWRV9VUkkxGDAWBgNVBAMM
D3d3dy53b2xmc3NsLmNvbTEfMB0GCSqGSIb3DQEJARYQaW5mb0B3b2xmc3NsLmNv
bTCCASIwDQYJKoZIhvcNAQEBBQADggEPADCCAQoCggEBAMMD0Sv+OaQyRTtTyIQr
Knx0mr2qKlIHR9amNrIHMo7Quml7xsNEntSBSP0taKKLZ7uhdcg2LErSG/eLus8N
+e/s8YEee5sDR5q/Zcx/ZSRppugUiVvkNPfFsBST9Wd7Onp44QFWVpGmE0KN0jxA
nEzv0YbfN1EbDKE79fGjSjXk4c6W3xt+v06X0BDoqAgwga8gC0MUxXRntDKCb42G
wohAmTaDuh5AciIX11JlJHOwzu8Zza7/eGx7wBID1E5yDVBtO6M7o5lencjZDIWz
2YrZVCbbbfqsu/8lTMTRefRx04ZAGBOwY7VyTjDEl4SGLVYv1xX3f8Cu9fxb5fuh
utMCAwEAAaOCASIwggEeMB0GA1UdDgQWBBQz2EVm12iHGH5UDXAnkccm14VlwDCB
zwYDVR0jBIHHMIHEgBQz2EVm12iHGH5UDXAnkccm14VlwKGBoKSBnTCBmjELMAkG
A1UEBhMCVVMxEDAOBgNVBAgMB01vbnRhbmExEDAOBgNVBAcMB0JvemVtYW4xFTAT
BgNVBAoMDHdvbGZTU0xfMjA0ODEVMBMGA1UECwwMUkVMQVRJVkVfVVJJMRgwFgYD
VQQDDA93d3cud29sZnNzbC5jb20xHzAdBgkqhkiG9w0BCQEWEGluZm9Ad29sZnNz
bC5jb22CCQDLOWbkWPHsxjAJBgNVHRMEAjAAMCAGA1UdEQQZMBeGFS4uL3JlbGF0
aXZlL3BhZ2UuaHRtbDANBgkqhkiG9w0BAQsFAAOCAQEAFNoyL06I89G1eg4y3D1T
XN4q4L9/iBSD5WJWm99q09Q4T5pXLiZmpivcmZOTyB6HdfLacKEBMUKV3J70F1lS
7Z2pV2Sa8KlhnfOnv2vuqiW3WF0vz/luLOIKLY9QcFgr+byGgHM64RsNfa8nsMTh
jPyQg/mHG5s+SC1TmwGL2k+fxfaG5raOPF/ZgFbknUcpaohq6KXH7We/FiPd60LN
NtnGQQ2X1gv0NtG2hlwZC/vCmnwxPFgROiBAzwC4Aq9XxhgMn4V84TSe3GSCZpnQ
VfX3z3qre0Mzb3HneNxaJ8sPWBdu0clto6NQH2MfN2wcTHWLzx2lHSIbUJACeITN
+A==
-----END CERTIFICATE-----
