Certificate:
    Data:
        Version: 3 (0x2)
        Serial Number:
            fa:02:fb:34:f8:ca:3d:c0
    Signature Algorithm: sha256WithRSAEncryption
        Issuer: C=US, ST=Montana, L=Bozeman, O=wolfSSL_2048, OU=Programming-2048, CN=www.wolfssl.com/emailAddress=info@wolfssl.com
        Validity
            Not Before: Jan 26 23:38:02 2023 GMT
            Not After : Oct 22 23:38:02 2025 GMT
        Subject: C=US, ST=Montana, L=Bozeman, O=wolfSSL_2048, OU=Programming-2048, CN=www.wolfssl.com/emailAddress=info@wolfssl.com
        Subject Public Key Info:
            Public Key Algorithm: rsaEncryption
                Public-Key: (2048 bit)
                Modulus:
                    00:c3:03:d1:2b:fe:39:a4:32:45:3b:53:c8:84:2b:
                    2a:7c:74:9a:bd:aa:2a:52:07:47:d6:a6:36:b2:07:
                    32:8e:d0:ba:69:7b:c6:c3:44:9e:d4:81:48:fd:2d:
                    68:a2:8b:67:bb:a1:75:c8:36:2c:4a:d2:1b:f7:8b:
                    ba:cf:0d:f9:ef:ec:f1:81:1e:7b:9b:03:47:9a:bf:
                    65:cc:7f:65:24:69:a6:e8:14:89:5b:e4:34:f7:c5:
                    b0:14:93:f5:67:7b:3a:7a:78:e1:01:56:56:91:a6:
                    13:42:8d:d2:3c:40:9c:4c:ef:d1:86:df:37:51:1b:
                    0c:a1:3b:f5:f1:a3:4a:35:e4:e1:ce:96:df:1b:7e:
                    bf:4e:97:d0:10:e8:a8:08:30:81:af:20:0b:43:14:
                    c5:74:67:b4:32:82:6f:8d:86:c2:88:40:99:36:83:
                    ba:1e:40:72:22:17:d7:52:65:24:73:b0:ce:ef:19:
                    cd:ae:ff:78:6c:7b:c0:12:03:d4:4e:72:0d:50:6d:
                    3b:a3:3b:a3:99:5e:9d:c8:d9:0c:85:b3:d9:8a:d9:
                    54:26:db:6d:fa:ac:bb:ff:25:4c:c4:d1:79:f4:71:
                    d3:86:40:18:13:b0:63:b5:72:4e:30:c4:97:84:86:
                    2d:56:2f:d7:15:f7:7f:c0:ae:f5:fc:5b:e5:fb:a1:
                    ba:d3
                Exponent: 65537 (0x10001)
        X509v3 extensions:
            X509v3 Subject Key Identifier: 
                33:D8:45:66:D7:68:87:18:7E:54:0D:70:27:91:C7:26:D7:85:65:C0
            X509v3 Authority Key Identifier: 
                keyid:33:D8:45:66:D7:68:87:18:7E:54:0D:70:27:91:C7:26:D7:85:65:C0
                DirName:/C=US/ST=Montana/L=Bozeman/O=wolfSSL_2048/OU=Programming-2048/CN=www.wolfssl.com/emailAddress=info@wolfssl.com
                serial:FA:02:FB:34:F8:CA:3D:C0

            X509v3 Basic Constraints: 
                CA:TRUE
    Signature Algorithm: sha256WithRSAEncryption
         44:f0:de:55:38:99:d3:29:90:af:28:7c:71:c9:59:7e:e2:5d:
         9c:b5:32:d4:d7:72:3d:cf:f4:3f:cd:01:7e:18:98:06:3f:a2:
         b3:da:49:68:51:09:71:60:00:c6:1b:21:08:99:95:b0:e8:82:
         7f:86:a1:fa:59:1f:37:3e:4b:c0:41:de:14:55:37:3d:60:e9:
         d5:56:cd:fe:d8:cd:41:be:4e:ff:bf:c6:76:98:34:82:1d:4a:
         a7:33:2d:29:7a:ef:1f:30:ea:f8:d6:a7:d1:48:19:6b:e5:be:
         ab:b1:49:fc:a4:bf:64:45:c3:88:aa:bd:5c:92:b3:36:2c:49:
         44:e3:55:99:1c:5e:9a:23:55:4f:23:04:e6:94:0b:2d:ec:4a:
         d8:51:bd:f5:b1:ae:f5:02:1b:ff:14:27:a3:7d:82:1d:88:0a:
         8d:1e:c3:6c:e0:07:8a:93:56:51:8e:95:29:bc:82:65:8d:8a:
         c2:ec:d8:94:87:de:69:6d:ff:ce:e3:fe:1e:9a:bd:70:9d:c0:
         fe:98:e3:31:20:d0:5a:c7:94:fb:eb:b4:70:e0:b5:17:af:89:
         af:36:ee:7d:5e:2f:fd:a9:f0:0c:18:2a:85:a9:08:fb:0e:b3:
         bd:22:23:2b:eb:ea:8b:cb:a5:5c:dc:2c:03:26:40:12:af:81:
         a2:6b:b6:7f
-----BEGIN CERTIFICATE-----
MIIEyjCCA7KgAwIBAgIJAPoC+zT4yj3AMA0GCSqGSIb3DQEBCwUAMIGeMQswCQYD
VQQGEwJVUzEQMA4GA1UECAwHTW9udGFuYTEQMA4GA1UEBwwHQm96ZW1hbjEVMBMG
A1UECgwMd29sZlNTTF8yMDQ4MRkwFwYDVQQLDBBQcm9ncmFtbWluZy0yMDQ4MRgw
FgYDVQQDDA93d3cud29sZnNzbC5jb20xHzAdBgkqhkiG9w0BCQEWEGluZm9Ad29s
ZnNzbC5jb20wHhcNMjMwMTI2MjMzODAyWhcNMjUxMDIyMjMzODAyWjCBnjELMAkG
A1UEBhMCVVMxEDAOBgNVBAgMB01vbnRhbmExEDAOBgNVBAcMB0JvemVtYW4xFTAT
BgNVBAoMDHdvbGZTU0xfMjA0ODEZMBcGA1UECwwQUHJvZ3JhbW1pbmctMjA0ODEY
MBYGA1UEAwwPd3d3LndvbGZzc2wuY29tMR8wHQYJKoZIhvcNAQkBFhBpbmZvQHdv
bGZzc2wuY29tMIIBIjANBgkqhkiG9w0BAQEFAAOCAQ8AMIIBCgKCAQEAwwPRK/45
pDJFO1PIhCsqfHSavaoqUgdH1qY2sgcyjtC6aXvGw0Se1IFI/S1oootnu6F1yDYs
StIb94u6zw357+zxgR57mwNHmr9lzH9lJGmm6BSJW+Q098WwFJP1Z3s6enjhAVZW
kaYTQo3SPECcTO/Rht83URsMoTv18aNKNeThzpbfG36/TpfQEOioCDCBryALQxTF
dGe0MoJvjYbCiECZNoO6HkByIhfXUmUkc7DO7xnNrv94bHvAEgPUTnINUG07ozuj
mV6dyNkMhbPZitlUJttt+qy7/yVMxNF59HHThkAYE7BjtXJOMMSXhIYtVi/XFfd/
wK71/Fvl+6G60wIDAQABo4IBBzCCAQMwHQYDVR0OBBYEFDPYRWbXaIcYflQNcCeR
xybXhWXAMIHTBgNVHSMEgcswgciAFDPYRWbXaIcYflQNcCeRxybXhWXAoYGkpIGh
MIGeMQswCQYDVQQGEwJVUzEQMA4GA1UECAwHTW9udGFuYTEQMA4GA1UEBwwHQm96
ZW1hbjEVMBMGA1UECgwMd29sZlNTTF8yMDQ4MRkwFwYDVQQLDBBQcm9ncmFtbWlu
Zy0yMDQ4MRgwFgYDVQQDDA93d3cud29sZnNzbC5jb20xHzAdBgkqhkiG9w0BCQEW
EGluZm9Ad29sZnNzbC5jb22CCQD6Avs0+Mo9wDAMBgNVHRMEBTADAQH/MA0GCSqG
SIb3DQEBCwUAA4IBAQBE8N5VOJnTKZCvKHxxyVl+4l2ctTLU13I9z/Q/zQF+GJgG
P6Kz2kloUQlxYADGGyEImZWw6IJ/hqH6WR83PkvAQd4UVTc9YOnVVs3+2M1Bvk7/
v8Z2mDSCHUqnMy0peu8fMOr41qfRSBlr5b6rsUn8pL9kRcOIqr1ckrM2LElE41WZ
HF6aI1VPIwTmlAst7ErYUb31sa71Ahv/FCejfYIdiAqNHsNs4AeKk1ZRjpUpvIJl
jYrC7NiUh95pbf/O4/4emr1wncD+mOMxINBax5T767Rw4LUXr4mvNu59Xi/9qfAM
GCqFqQj7DrO9IiMr6+qLy6Vc3CwDJkASr4Gia7Z/
-----END CERTIFICATE-----
