Certificate:
    Data:
        Version: 3 (0x2)
        Serial Number:
            a6:9a:9a:78:4e:00:e9:f1
    Signature Algorithm: sha256WithRSAEncryption
        Issuer: C=US, ST=Montana, L=Bozeman, O=wolfSSL_3072, OU=Programming-3072, CN=www.wolfssl.com/emailAddress=info@wolfssl.com
        Validity
            Not Before: Jan 26 23:38:02 2023 GMT
            Not After : Oct 22 23:38:02 2025 GMT
        Subject: C=US, ST=Montana, L=Bozeman, O=wolfSSL_3072, OU=Programming-3072, CN=www.wolfssl.com/emailAddress=info@wolfssl.com
        Subject Public Key Info:
            Public Key Algorithm: rsaEncryption
                Public-Key: (3072 bit)
                Modulus:
                    00:d1:46:3b:eb:0e:67:e2:8a:be:9f:b4:99:ac:42:
                    05:62:16:8a:26:bd:61:15:ab:41:7b:e6:02:cb:2e:
                    3d:6e:ed:22:a4:dd:71:23:1e:2b:d7:6a:3c:c3:00:
                    5c:42:da:7a:87:d3:1c:d5:37:eb:ff:14:46:ce:e0:
                    3e:9d:8c:d1:41:5c:3e:0f:2b:49:a7:59:04:96:e7:
                    c9:51:fb:95:3d:fd:63:d8:97:a3:a9:fd:13:31:e8:
                    a8:12:e2:66:87:3f:c5:56:76:5c:c0:21:0c:4e:fa:
                    1f:c3:5c:a4:bd:8c:ca:c6:46:14:c4:83:59:9d:b6:
                    a3:92:e7:8d:d8:13:6e:69:0a:84:ce:c3:85:94:32:
                    7e:bb:fb:ca:c1:c1:43:77:c9:ee:ed:d2:f6:ea:60:
                    30:5c:28:cd:52:40:b3:ad:d3:d9:7d:5a:37:54:ba:
                    ca:57:b1:a0:bd:b0:d9:a2:c8:a8:c6:29:86:48:40:
                    dc:e1:94:c8:4d:ff:b0:67:0f:4f:b1:f1:6a:24:9c:
                    66:e0:ba:91:04:52:f2:fe:bc:51:a6:dd:51:54:5c:
                    bb:c9:4d:8b:7d:a9:df:7b:23:84:a5:94:8d:13:0d:
                    f1:31:75:b8:b4:92:dc:fc:0e:49:41:a6:94:6c:c9:
                    20:12:ec:6c:37:63:60:3c:5b:b1:35:9c:b9:88:01:
                    92:a4:8d:62:10:38:9e:bb:02:44:6f:19:a8:bb:3b:
                    9e:19:a1:9a:a1:ba:0e:ea:70:a5:95:c0:fe:3d:3a:
                    ff:69:78:98:4e:5a:ab:69:61:94:79:ed:35:87:09:
                    c0:56:26:bd:76:63:9a:01:8f:0c:a2:80:af:ab:8c:
                    20:86:e9:ce:5a:43:1f:76:4d:2e:c5:01:0f:97:03:
                    7d:16:b7:c6:64:06:f1:61:20:48:bc:b8:91:86:0a:
                    ae:78:b7:9a:c1:2f:69:70:e9:e4:81:d8:06:e3:14:
                    90:9c:b6:51:6a:28:34:6e:00:fe:e8:09:23:38:5c:
                    1e:3d:12:11:f5:d1:3a:cd:a9:99
                Exponent: 65537 (0x10001)
        X509v3 extensions:
            X509v3 Subject Key Identifier: 
                84:36:75:47:DD:D0:43:A6:86:74:22:3C:31:A4:96:76:D3:59:68:12
            X509v3 Authority Key Identifier: 
                keyid:84:36:75:47:DD:D0:43:A6:86:74:22:3C:31:A4:96:76:D3:59:68:12
                DirName:/C=US/ST=Montana/L=Bozeman/O=wolfSSL_3072/OU=Programming-3072/CN=www.wolfssl.com/emailAddress=info@wolfssl.com
                serial:A6:9A:9A:78:4E:00:E9:F1

            X509v3 Basic Constraints: 
                CA:TRUE
    Signature Algorithm: sha256WithRSAEncryption
         ce:91:30:0a:e3:b3:8c:48:e1:94:d1:3b:ee:62:56:e3:7d:6f:
         05:00:b8:8a:77:7b:56:d7:ec:fb:b9:f7:a0:11:c4:a8:a3:ac:
         17:60:08:b6:81:c3:d6:3f:cc:ec:74:9a:95:15:0b:9f:51:ca:
         5a:24:e0:07:a5:0f:00:c1:bc:47:27:90:d0:89:78:9a:37:71:
         19:b7:b9:ef:18:ce:05:09:aa:35:bb:ed:23:6b:ed:04:9a:ec:
         86:2c:57:42:ea:2b:94:09:b8:65:61:2b:8d:3d:6f:58:71:2b:
         a5:12:2c:03:e0:44:88:d9:72:6e:ae:94:f6:89:c2:fd:f4:1f:
         0c:6a:c3:31:99:43:84:a6:d0:b8:2f:11:94:39:80:f6:4c:76:
         8d:b8:6b:e0:32:3e:dd:f3:80:e8:8d:f5:5a:de:d5:da:65:bd:
         d6:d6:45:0f:44:b8:7e:54:b7:45:51:db:39:4c:27:5d:21:ee:
         83:ec:89:f7:63:69:c1:af:e4:48:20:98:58:14:da:7f:a9:a9:
         ed:84:5b:73:3c:e6:23:98:2c:35:52:f5:33:ef:ae:80:1a:08:
         b2:db:ee:71:11:e7:45:60:60:f1:02:d4:e9:47:92:2b:90:99:
         88:e3:1e:02:57:c3:72:4f:32:cf:b1:d8:c8:cd:c7:f7:4a:c8:
         f5:99:df:ba:57:ae:2a:33:3c:fb:37:72:2b:5a:7d:0b:21:cb:
         de:14:84:21:f1:f3:00:45:bf:92:88:5a:c1:b8:7f:0f:1a:a4:
         3d:2f:1f:d4:09:74:be:e8:d1:03:ec:13:07:e2:ff:fb:26:15:
         61:9d:43:62:99:50:80:17:05:98:ce:38:0a:b6:80:18:f3:8f:
         6a:1a:f1:fe:26:d1:b4:7e:1c:73:4a:48:10:b6:3e:0c:0f:3e:
         a5:13:6d:2a:8a:84:95:7e:32:45:ff:7d:37:40:73:df:84:77:
         87:af:67:c1:c6:a3:1e:2b:82:08:04:df:ff:7d:a7:40:87:df:
         d7:d5:d9:b8:44:80
-----BEGIN CERTIFICATE-----
MIIFyjCCBDKgAwIBAgIJAKaamnhOAOnxMA0GCSqGSIb3DQEBCwUAMIGeMQswCQYD
VQQGEwJVUzEQMA4GA1UECAwHTW9udGFuYTEQMA4GA1UEBwwHQm96ZW1hbjEVMBMG
A1UECgwMd29sZlNTTF8zMDcyMRkwFwYDVQQLDBBQcm9ncmFtbWluZy0zMDcyMRgw
FgYDVQQDDA93d3cud29sZnNzbC5jb20xHzAdBgkqhkiG9w0BCQEWEGluZm9Ad29s
ZnNzbC5jb20wHhcNMjMwMTI2MjMzODAyWhcNMjUxMDIyMjMzODAyWjCBnjELMAkG
A1UEBhMCVVMxEDAOBgNVBAgMB01vbnRhbmExEDAOBgNVBAcMB0JvemVtYW4xFTAT
BgNVBAoMDHdvbGZTU0xfMzA3MjEZMBcGA1UECwwQUHJvZ3JhbW1pbmctMzA3MjEY
MBYGA1UEAwwPd3d3LndvbGZzc2wuY29tMR8wHQYJKoZIhvcNAQkBFhBpbmZvQHdv
bGZzc2wuY29tMIIBojANBgkqhkiG9w0BAQEFAAOCAY8AMIIBigKCAYEA0UY76w5n
4oq+n7SZrEIFYhaKJr1hFatBe+YCyy49bu0ipN1xIx4r12o8wwBcQtp6h9Mc1Tfr
/xRGzuA+nYzRQVw+DytJp1kElufJUfuVPf1j2Jejqf0TMeioEuJmhz/FVnZcwCEM
Tvofw1ykvYzKxkYUxINZnbajkueN2BNuaQqEzsOFlDJ+u/vKwcFDd8nu7dL26mAw
XCjNUkCzrdPZfVo3VLrKV7GgvbDZosioximGSEDc4ZTITf+wZw9PsfFqJJxm4LqR
BFLy/rxRpt1RVFy7yU2LfanfeyOEpZSNEw3xMXW4tJLc/A5JQaaUbMkgEuxsN2Ng
PFuxNZy5iAGSpI1iEDieuwJEbxmouzueGaGaoboO6nCllcD+PTr/aXiYTlqraWGU
ee01hwnAVia9dmOaAY8MooCvq4wghunOWkMfdk0uxQEPlwN9FrfGZAbxYSBIvLiR
hgqueLeawS9pcOnkgdgG4xSQnLZRaig0bgD+6AkjOFwePRIR9dE6zamZAgMBAAGj
ggEHMIIBAzAdBgNVHQ4EFgQUhDZ1R93QQ6aGdCI8MaSWdtNZaBIwgdMGA1UdIwSB
yzCByIAUhDZ1R93QQ6aGdCI8MaSWdtNZaBKhgaSkgaEwgZ4xCzAJBgNVBAYTAlVT
MRAwDgYDVQQIDAdNb250YW5hMRAwDgYDVQQHDAdCb3plbWFuMRUwEwYDVQQKDAx3
b2xmU1NMXzMwNzIxGTAXBgNVBAsMEFByb2dyYW1taW5nLTMwNzIxGDAWBgNVBAMM
D3d3dy53b2xmc3NsLmNvbTEfMB0GCSqGSIb3DQEJARYQaW5mb0B3b2xmc3NsLmNv
bYIJAKaamnhOAOnxMAwGA1UdEwQFMAMBAf8wDQYJKoZIhvcNAQELBQADggGBAM6R
MArjs4xI4ZTRO+5iVuN9bwUAuIp3e1bX7Pu596ARxKijrBdgCLaBw9Y/zOx0mpUV
C59Rylok4AelDwDBvEcnkNCJeJo3cRm3ue8YzgUJqjW77SNr7QSa7IYsV0LqK5QJ
uGVhK409b1hxK6USLAPgRIjZcm6ulPaJwv30HwxqwzGZQ4Sm0LgvEZQ5gPZMdo24
a+AyPt3zgOiN9Vre1dplvdbWRQ9EuH5Ut0VR2zlMJ10h7oPsifdjacGv5EggmFgU
2n+pqe2EW3M85iOYLDVS9TPvroAaCLLb7nER50VgYPEC1OlHkiuQmYjjHgJXw3JP
Ms+x2MjNx/dKyPWZ37pXriozPPs3citafQshy94UhCHx8wBFv5KIWsG4fw8apD0v
H9QJdL7o0QPsEwfi//smFWGdQ2KZUIAXBZjOOAq2gBjzj2oa8f4m0bR+HHNKSBC2
PgwPPqUTbSqKhJV+MkX/fTdAc9+Ed4evZ8HGox4rgggE3/99p0CH39fV2bhEgA==
-----END CERTIFICATE-----
