Certificate:
    Data:
        Version: 3 (0x2)
        Serial Number: 2 (0x2)
    Signature Algorithm: sha256WithRSAEncryption
        Issuer: C=US, ST=Montana, L=Bozeman, O=Sawtooth, OU=Consulting, CN=www.wolfssl.com/emailAddress=info@wolfssl.com
        Validity
            Not Before: Jul  4 04:39:21 2021 GMT
            Not After : Mar 30 04:39:21 2024 GMT
        Subject: C=US, ST=Montana, L=Bozeman, O=wolfSSL_revoked, OU=Support_revoked, CN=www.wolfssl.com/emailAddress=info@wolfssl.com
        Subject Public Key Info:
            Public Key Algorithm: rsaEncryption
                Public-Key: (2048 bit)
                Modulus:
                    00:b0:14:16:3a:43:dd:e1:50:45:4f:cf:80:b3:dd:
                    66:96:c7:e9:f4:dc:de:b6:6b:24:1b:76:48:ac:c6:
                    23:a5:a7:e4:05:19:bd:b7:f6:de:fa:ff:ed:5b:3c:
                    79:8a:a9:d5:f1:fb:eb:c8:b1:e4:b2:ab:52:72:89:
                    93:22:5c:ba:cd:8a:36:2a:2c:d1:40:ec:a8:66:0e:
                    c3:76:cd:e7:b3:a3:0a:1e:dd:4a:07:82:17:81:ba:
                    de:57:ce:b6:32:81:c7:bd:11:bb:e9:15:22:4e:e2:
                    16:ac:e3:d4:c0:68:88:6c:11:fc:c2:bd:1b:db:1d:
                    fd:e6:43:c7:1b:33:b8:f4:e5:1b:59:39:12:38:4d:
                    2d:9b:64:68:98:fc:8d:72:12:91:f2:24:25:6c:4c:
                    4a:48:57:92:00:cc:7e:d8:d4:3d:b8:1d:f2:9e:ea:
                    b2:23:0f:51:0f:11:41:1c:f5:27:00:1b:08:7a:12:
                    3a:05:5b:03:24:fe:b1:7b:20:fa:e4:a8:58:c6:ca:
                    ce:7f:be:95:01:12:9d:05:e6:39:13:1b:c0:3e:56:
                    2e:2b:9f:76:37:de:de:9b:e0:0d:7a:63:0d:a7:22:
                    58:db:31:c7:f7:b4:46:5c:ba:b6:4b:48:b1:18:9a:
                    68:b3:63:47:fd:af:12:5f:2f:fe:10:cb:58:2b:33:
                    68:85
                Exponent: 65537 (0x10001)
        X509v3 extensions:
            X509v3 Subject Key Identifier: 
                D8:09:2B:59:E1:2A:EE:D9:EE:40:AA:9C:AB:F0:5D:28:09:4F:22:BB
            X509v3 Authority Key Identifier: 
                keyid:27:8E:67:11:74:C3:26:1D:3F:ED:33:63:B3:A4:D8:1D:30:E5:E8:D5
                DirName:/C=US/ST=Montana/L=Bozeman/O=Sawtooth/OU=Consulting/CN=www.wolfssl.com/emailAddress=info@wolfssl.com
                serial:81:32:7F:B3:64:03:E0:E2

            X509v3 Basic Constraints: 
                CA:TRUE
    Signature Algorithm: sha256WithRSAEncryption
         32:c6:d9:98:ce:69:92:bc:67:bd:d8:74:a9:49:b6:30:64:94:
         c4:b0:20:b4:bd:c7:fd:6c:e5:67:b8:07:bc:41:49:eb:77:56:
         af:9a:56:e7:15:4a:b6:1f:a9:70:0f:d1:ab:f3:68:e9:9b:21:
         53:87:8b:19:a3:cc:8b:9f:4e:6a:3a:ce:bf:75:8a:71:8b:17:
         05:54:b8:ec:ec:08:8e:03:08:ee:fe:d5:ba:2c:a3:c4:de:10:
         91:31:bc:ad:ee:da:69:b8:71:e6:67:4b:1c:25:14:f5:ac:27:
         a2:f6:32:c0:e7:10:09:f0:49:9b:f6:35:97:cc:2a:e8:d4:93:
         b6:5f:0a:8b:af:b8:61:79:27:7d:83:fe:0a:5f:4c:4b:14:bd:
         51:e6:26:f8:6b:04:52:68:5b:35:c1:20:b5:3e:a8:f5:30:ba:
         f9:3b:d9:a6:fb:57:7d:0f:ac:78:01:91:8a:0e:d8:36:48:e9:
         94:91:19:f1:fa:ce:af:bc:d9:7b:84:87:46:93:24:de:78:6e:
         4f:84:c5:e8:6d:6f:1d:b5:1f:51:0b:92:42:cd:c8:c3:a6:fc:
         e5:47:65:ed:27:b7:2f:2a:26:2a:99:41:d9:df:dc:4b:32:4e:
         1e:54:98:53:43:a6:f9:5a:d6:87:c4:de:a8:85:8f:e1:38:1e:
         1b:fe:60:b3
-----BEGIN CERTIFICATE-----
MIIErjCCA5agAwIBAgIBAjANBgkqhkiG9w0BAQsFADCBlDELMAkGA1UEBhMCVVMx
EDAOBgNVBAgMB01vbnRhbmExEDAOBgNVBAcMB0JvemVtYW4xETAPBgNVBAoMCFNh
d3Rvb3RoMRMwEQYDVQQLDApDb25zdWx0aW5nMRgwFgYDVQQDDA93d3cud29sZnNz
bC5jb20xHzAdBgkqhkiG9w0BCQEWEGluZm9Ad29sZnNzbC5jb20wHhcNMjEwNzA0
MDQzOTIxWhcNMjQwMzMwMDQzOTIxWjCBoDELMAkGA1UEBhMCVVMxEDAOBgNVBAgM
B01vbnRhbmExEDAOBgNVBAcMB0JvemVtYW4xGDAWBgNVBAoMD3dvbGZTU0xfcmV2
b2tlZDEYMBYGA1UECwwPU3VwcG9ydF9yZXZva2VkMRgwFgYDVQQDDA93d3cud29s
ZnNzbC5jb20xHzAdBgkqhkiG9w0BCQEWEGluZm9Ad29sZnNzbC5jb20wggEiMA0G
CSqGSIb3DQEBAQUAA4IBDwAwggEKAoIBAQCwFBY6Q93hUEVPz4Cz3WaWx+n03N62
ayQbdkisxiOlp+QFGb239t76/+1bPHmKqdXx++vIseSyq1JyiZMiXLrNijYqLNFA
7KhmDsN2zeezowoe3UoHgheBut5XzrYygce9EbvpFSJO4has49TAaIhsEfzCvRvb
Hf3mQ8cbM7j05RtZORI4TS2bZGiY/I1yEpHyJCVsTEpIV5IAzH7Y1D24HfKe6rIj
D1EPEUEc9ScAGwh6EjoFWwMk/rF7IPrkqFjGys5/vpUBEp0F5jkTG8A+Vi4rn3Y3
3t6b4A16Yw2nIljbMcf3tEZcurZLSLEYmmizY0f9rxJfL/4Qy1grM2iFAgMBAAGj
gfwwgfkwHQYDVR0OBBYEFNgJK1nhKu7Z7kCqnKvwXSgJTyK7MIHJBgNVHSMEgcEw
gb6AFCeOZxF0wyYdP+0zY7Ok2B0w5ejVoYGapIGXMIGUMQswCQYDVQQGEwJVUzEQ
MA4GA1UECAwHTW9udGFuYTEQMA4GA1UEBwwHQm96ZW1hbjERMA8GA1UECgwIU2F3
dG9vdGgxEzARBgNVBAsMCkNvbnN1bHRpbmcxGDAWBgNVBAMMD3d3dy53b2xmc3Ns
LmNvbTEfMB0GCSqGSIb3DQEJARYQaW5mb0B3b2xmc3NsLmNvbYIJAIEyf7NkA+Di
MAwGA1UdEwQFMAMBAf8wDQYJKoZIhvcNAQELBQADggEBADLG2ZjOaZK8Z73YdKlJ
tjBklMSwILS9x/1s5We4B7xBSet3Vq+aVucVSrYfqXAP0avzaOmbIVOHixmjzIuf
Tmo6zr91inGLFwVUuOzsCI4DCO7+1boso8TeEJExvK3u2mm4ceZnSxwlFPWsJ6L2
MsDnEAnwSZv2NZfMKujUk7ZfCouvuGF5J32D/gpfTEsUvVHmJvhrBFJoWzXBILU+
qPUwuvk72ab7V30PrHgBkYoO2DZI6ZSRGfH6zq+82XuEh0aTJN54bk+Exehtbx21
H1ELkkLNyMOm/OVHZe0nty8qJiqZQdnf3EsyTh5UmFNDpvla1ofE3qiFj+E4Hhv+
YLM=
-----END CERTIFICATE-----
Certificate:
    Data:
        Version: 3 (0x2)
        Serial Number:
            81:32:7f:b3:64:03:e0:e2
    Signature Algorithm: sha256WithRSAEncryption
        Issuer: C=US, ST=Montana, L=Bozeman, O=Sawtooth, OU=Consulting, CN=www.wolfssl.com/emailAddress=info@wolfssl.com
        Validity
            Not Before: Jul  4 04:39:21 2021 GMT
            Not After : Mar 30 04:39:21 2024 GMT
        Subject: C=US, ST=Montana, L=Bozeman, O=Sawtooth, OU=Consulting, CN=www.wolfssl.com/emailAddress=info@wolfssl.com
        Subject Public Key Info:
            Public Key Algorithm: rsaEncryption
                Public-Key: (2048 bit)
                Modulus:
                    00:bf:0c:ca:2d:14:b2:1e:84:42:5b:cd:38:1f:4a:
                    f2:4d:75:10:f1:b6:35:9f:df:ca:7d:03:98:d3:ac:
                    de:03:66:ee:2a:f1:d8:b0:7d:6e:07:54:0b:10:98:
                    21:4d:80:cb:12:20:e7:cc:4f:de:45:7d:c9:72:77:
                    32:ea:ca:90:bb:69:52:10:03:2f:a8:f3:95:c5:f1:
                    8b:62:56:1b:ef:67:6f:a4:10:41:95:ad:0a:9b:e3:
                    a5:c0:b0:d2:70:76:50:30:5b:a8:e8:08:2c:7c:ed:
                    a7:a2:7a:8d:38:29:1c:ac:c7:ed:f2:7c:95:b0:95:
                    82:7d:49:5c:38:cd:77:25:ef:bd:80:75:53:94:3c:
                    3d:ca:63:5b:9f:15:b5:d3:1d:13:2f:19:d1:3c:db:
                    76:3a:cc:b8:7d:c9:e5:c2:d7:da:40:6f:d8:21:dc:
                    73:1b:42:2d:53:9c:fe:1a:fc:7d:ab:7a:36:3f:98:
                    de:84:7c:05:67:ce:6a:14:38:87:a9:f1:8c:b5:68:
                    cb:68:7f:71:20:2b:f5:a0:63:f5:56:2f:a3:26:d2:
                    b7:6f:b1:5a:17:d7:38:99:08:fe:93:58:6f:fe:c3:
                    13:49:08:16:0b:a7:4d:67:00:52:31:67:23:4e:98:
                    ed:51:45:1d:b9:04:d9:0b:ec:d8:28:b3:4b:bd:ed:
                    36:79
                Exponent: 65537 (0x10001)
        X509v3 extensions:
            X509v3 Subject Key Identifier: 
                27:8E:67:11:74:C3:26:1D:3F:ED:33:63:B3:A4:D8:1D:30:E5:E8:D5
            X509v3 Authority Key Identifier: 
                keyid:27:8E:67:11:74:C3:26:1D:3F:ED:33:63:B3:A4:D8:1D:30:E5:E8:D5
                DirName:/C=US/ST=Montana/L=Bozeman/O=Sawtooth/OU=Consulting/CN=www.wolfssl.com/emailAddress=info@wolfssl.com
                serial:81:32:7F:B3:64:03:E0:E2

            X509v3 Basic Constraints: 
                CA:TRUE
    Signature Algorithm: sha256WithRSAEncryption
         69:78:92:4f:ee:c9:21:30:b6:22:bb:ec:46:39:9e:34:71:61:
         56:a4:eb:95:82:dd:ba:75:63:dd:5a:2e:ed:0d:10:f3:93:74:
         05:76:07:bf:d5:db:67:08:64:af:c3:2d:6f:53:a0:32:a4:1d:
         dd:83:b7:25:3f:23:73:ca:3e:9c:f1:82:44:c7:d9:f7:78:fe:
         1e:04:a0:e5:bc:27:26:8f:e0:ec:3a:b8:e9:20:d0:2c:92:95:
         4c:32:22:ca:70:8e:1e:c4:c1:53:e4:42:ac:3d:5e:27:d1:0b:
         bd:1a:02:66:39:b2:d5:90:40:10:bf:f9:1a:87:5d:e5:f6:da:
         48:df:d0:cd:36:55:9e:1b:65:bd:5c:f2:8b:62:74:9d:ec:9f:
         e2:d7:44:10:d4:bc:bd:41:dc:a8:c2:c7:d6:cd:6d:91:da:48:
         2f:f9:5f:d6:95:9c:16:69:c2:0e:e2:69:96:be:3d:b9:a5:9c:
         b1:fc:fb:65:5a:35:12:54:aa:f6:69:7a:7d:5d:eb:5e:e7:81:
         13:88:30:ed:0f:70:0e:1c:09:e8:f7:2a:d7:23:3b:a5:78:08:
         d6:3e:a1:89:95:0c:17:ff:3a:d5:ba:ae:a5:25:f7:73:57:cf:
         6e:c1:c8:d2:d0:73:26:8e:f2:1f:22:bc:df:a9:ae:c7:47:89:
         aa:62:06:4a
-----BEGIN CERTIFICATE-----
MIIEqjCCA5KgAwIBAgIJAIEyf7NkA+DiMA0GCSqGSIb3DQEBCwUAMIGUMQswCQYD
VQQGEwJVUzEQMA4GA1UECAwHTW9udGFuYTEQMA4GA1UEBwwHQm96ZW1hbjERMA8G
A1UECgwIU2F3dG9vdGgxEzARBgNVBAsMCkNvbnN1bHRpbmcxGDAWBgNVBAMMD3d3
dy53b2xmc3NsLmNvbTEfMB0GCSqGSIb3DQEJARYQaW5mb0B3b2xmc3NsLmNvbTAe
Fw0yMTA3MDQwNDM5MjFaFw0yNDAzMzAwNDM5MjFaMIGUMQswCQYDVQQGEwJVUzEQ
MA4GA1UECAwHTW9udGFuYTEQMA4GA1UEBwwHQm96ZW1hbjERMA8GA1UECgwIU2F3
dG9vdGgxEzARBgNVBAsMCkNvbnN1bHRpbmcxGDAWBgNVBAMMD3d3dy53b2xmc3Ns
LmNvbTEfMB0GCSqGSIb3DQEJARYQaW5mb0B3b2xmc3NsLmNvbTCCASIwDQYJKoZI
hvcNAQEBBQADggEPADCCAQoCggEBAL8Myi0Ush6EQlvNOB9K8k11EPG2NZ/fyn0D
mNOs3gNm7irx2LB9bgdUCxCYIU2AyxIg58xP3kV9yXJ3MurKkLtpUhADL6jzlcXx
i2JWG+9nb6QQQZWtCpvjpcCw0nB2UDBbqOgILHztp6J6jTgpHKzH7fJ8lbCVgn1J
XDjNdyXvvYB1U5Q8PcpjW58VtdMdEy8Z0TzbdjrMuH3J5cLX2kBv2CHccxtCLVOc
/hr8fat6Nj+Y3oR8BWfOahQ4h6nxjLVoy2h/cSAr9aBj9VYvoybSt2+xWhfXOJkI
/pNYb/7DE0kIFgunTWcAUjFnI06Y7VFFHbkE2Qvs2CizS73tNnkCAwEAAaOB/DCB
+TAdBgNVHQ4EFgQUJ45nEXTDJh0/7TNjs6TYHTDl6NUwgckGA1UdIwSBwTCBvoAU
J45nEXTDJh0/7TNjs6TYHTDl6NWhgZqkgZcwgZQxCzAJBgNVBAYTAlVTMRAwDgYD
VQQIDAdNb250YW5hMRAwDgYDVQQHDAdCb3plbWFuMREwDwYDVQQKDAhTYXd0b290
aDETMBEGA1UECwwKQ29uc3VsdGluZzEYMBYGA1UEAwwPd3d3LndvbGZzc2wuY29t
MR8wHQYJKoZIhvcNAQkBFhBpbmZvQHdvbGZzc2wuY29tggkAgTJ/s2QD4OIwDAYD
VR0TBAUwAwEB/zANBgkqhkiG9w0BAQsFAAOCAQEAaXiST+7JITC2IrvsRjmeNHFh
VqTrlYLdunVj3Vou7Q0Q85N0BXYHv9XbZwhkr8Mtb1OgMqQd3YO3JT8jc8o+nPGC
RMfZ93j+HgSg5bwnJo/g7Dq46SDQLJKVTDIiynCOHsTBU+RCrD1eJ9ELvRoCZjmy
1ZBAEL/5Godd5fbaSN/QzTZVnhtlvVzyi2J0neyf4tdEENS8vUHcqMLH1s1tkdpI
L/lf1pWcFmnCDuJplr49uaWcsfz7ZVo1ElSq9ml6fV3rXueBE4gw7Q9wDhwJ6Pcq
1yM7pXgI1j6hiZUMF/861bqupSX3c1fPbsHI0tBzJo7yHyK836mux0eJqmIGSg==
-----END CERTIFICATE-----
