Certificate:
    Data:
        Version: 3 (0x2)
        Serial Number: 1 (0x1)
    Signature Algorithm: sha256WithRSAEncryption
        Issuer: C=US, ST=Montana, L=Bozeman, O=Sawtooth, OU=Consulting, CN=www.wolfssl.com/emailAddress=info@wolfssl.com
        Validity
            Not Before: Jan 26 23:38:03 2023 GMT
            Not After : Oct 22 23:38:03 2025 GMT
        Subject: C=US, ST=Montana, L=Bozeman, O=Elliptic - RSAsig, OU=ECC-RSAsig, CN=www.wolfssl.com/emailAddress=info@wolfssl.com
        Subject Public Key Info:
            Public Key Algorithm: id-ecPublicKey
                Public-Key: (256 bit)
                pub: 
                    04:bb:33:ac:4c:27:50:4a:c6:4a:a5:04:c3:3c:de:
                    9f:36:db:72:2d:ce:94:ea:2b:fa:cb:20:09:39:2c:
                    16:e8:61:02:e9:af:4d:d3:02:93:9a:31:5b:97:92:
                    21:7f:f0:cf:18:da:91:11:02:34:86:e8:20:58:33:
                    0b:80:34:89:d8
                ASN1 OID: prime256v1
                NIST CURVE: P-256
        X509v3 extensions:
            X509v3 Subject Key Identifier: 
                5D:5D:26:EF:AC:7E:36:F9:9B:76:15:2B:4A:25:02:23:EF:B2:89:30
            X509v3 Authority Key Identifier: 
                keyid:27:8E:67:11:74:C3:26:1D:3F:ED:33:63:B3:A4:D8:1D:30:E5:E8:D5
                DirName:/C=US/ST=Montana/L=Bozeman/O=Sawtooth/OU=Consulting/CN=www.wolfssl.com/emailAddress=info@wolfssl.com
                serial:DC:04:23:A3:29:1F:DB:5E

            X509v3 Basic Constraints: 
                CA:TRUE
    Signature Algorithm: sha256WithRSAEncryption
         a3:83:cf:65:93:4f:a6:71:85:cc:76:71:12:91:9f:96:91:57:
         d9:d1:1b:81:62:52:59:aa:5f:60:f6:d6:d3:54:f5:ab:15:0a:
         74:ba:fa:94:a4:eb:d9:84:6b:91:ec:b2:e6:3e:08:74:79:19:
         2d:e8:53:e5:77:be:51:99:ec:04:1f:f6:c3:ab:aa:25:dd:39:
         fd:3c:ea:39:a2:a4:1f:68:a3:53:e0:d0:b4:8d:5a:61:57:a5:
         5d:34:ab:96:89:a1:c0:6b:93:9a:13:ac:9a:d7:ad:10:ca:02:
         ab:9b:2b:dd:0d:92:2f:f7:f4:2e:dd:a7:b1:ff:d7:41:cd:ce:
         c5:a6:07:3d:64:1d:ac:46:55:8d:59:52:f1:92:ba:44:aa:a2:
         2e:e2:af:27:f8:26:ef:b5:ed:09:19:3f:42:3d:44:a3:d6:15:
         04:73:7f:e1:fd:67:3d:33:70:d1:c3:de:74:17:3b:a0:ac:e3:
         60:e4:0d:fc:5c:e2:13:d8:9f:05:97:5e:26:8d:06:c5:43:6a:
         5f:cd:b5:fa:47:7e:61:fa:30:4e:95:df:1e:4e:48:46:09:2a:
         8b:2f:42:ea:0e:a6:d4:64:01:b4:45:99:4b:2d:2c:84:7f:a1:
         b5:ed:32:21:59:d9:7b:b8:37:55:6c:34:2e:1c:f2:ac:a5:dd:
         b3:c2:be:68
-----BEGIN CERTIFICATE-----
MIID4DCCAsigAwIBAgIBATANBgkqhkiG9w0BAQsFADCBlDELMAkGA1UEBhMCVVMx
EDAOBgNVBAgMB01vbnRhbmExEDAOBgNVBAcMB0JvemVtYW4xETAPBgNVBAoMCFNh
d3Rvb3RoMRMwEQYDVQQLDApDb25zdWx0aW5nMRgwFgYDVQQDDA93d3cud29sZnNz
bC5jb20xHzAdBgkqhkiG9w0BCQEWEGluZm9Ad29sZnNzbC5jb20wHhcNMjMwMTI2
MjMzODAzWhcNMjUxMDIyMjMzODAzWjCBnTELMAkGA1UEBhMCVVMxEDAOBgNVBAgM
B01vbnRhbmExEDAOBgNVBAcMB0JvemVtYW4xGjAYBgNVBAoMEUVsbGlwdGljIC0g
UlNBc2lnMRMwEQYDVQQLDApFQ0MtUlNBc2lnMRgwFgYDVQQDDA93d3cud29sZnNz
bC5jb20xHzAdBgkqhkiG9w0BCQEWEGluZm9Ad29sZnNzbC5jb20wWTATBgcqhkjO
PQIBBggqhkjOPQMBBwNCAAS7M6xMJ1BKxkqlBMM83p8223ItzpTqK/rLIAk5LBbo
YQLpr03TApOaMVuXkiF/8M8Y2pERAjSG6CBYMwuANInYo4H8MIH5MB0GA1UdDgQW
BBRdXSbvrH42+Zt2FStKJQIj77KJMDCByQYDVR0jBIHBMIG+gBQnjmcRdMMmHT/t
M2OzpNgdMOXo1aGBmqSBlzCBlDELMAkGA1UEBhMCVVMxEDAOBgNVBAgMB01vbnRh
bmExEDAOBgNVBAcMB0JvemVtYW4xETAPBgNVBAoMCFNhd3Rvb3RoMRMwEQYDVQQL
DApDb25zdWx0aW5nMRgwFgYDVQQDDA93d3cud29sZnNzbC5jb20xHzAdBgkqhkiG
9w0BCQEWEGluZm9Ad29sZnNzbC5jb22CCQDcBCOjKR/bXjAMBgNVHRMEBTADAQH/
MA0GCSqGSIb3DQEBCwUAA4IBAQCjg89lk0+mcYXMdnESkZ+WkVfZ0RuBYlJZql9g
9tbTVPWrFQp0uvqUpOvZhGuR7LLmPgh0eRkt6FPld75RmewEH/bDq6ol3Tn9POo5
oqQfaKNT4NC0jVphV6VdNKuWiaHAa5OaE6ya160QygKrmyvdDZIv9/Qu3aex/9dB
zc7Fpgc9ZB2sRlWNWVLxkrpEqqIu4q8n+Cbvte0JGT9CPUSj1hUEc3/h/Wc9M3DR
w950FzugrONg5A38XOIT2J8Fl14mjQbFQ2pfzbX6R35h+jBOld8eTkhGCSqLL0Lq
DqbUZAG0RZlLLSyEf6G17TIhWdl7uDdVbDQuHPKspd2zwr5o
-----END CERTIFICATE-----
