Certificate:
    Data:
        Version: 3 (0x2)
        Serial Number: 1 (0x1)
    Signature Algorithm: sha256WithRSAEncryption
        Issuer: C=US, ST=Montana, L=Bozeman, O=Sawtooth, OU=Consulting, CN=www.wolfssl.com/emailAddress=info@wolfssl.com
        Validity
            Not Before: Jul  4 04:39:21 2021 GMT
            Not After : Mar 30 04:39:21 2024 GMT
        Subject: C=US, ST=Montana, L=Bozeman, O=wolfSSL, OU=Support, CN=www.wolfssl.com/emailAddress=info@wolfssl.com
        Subject Public Key Info:
            Public Key Algorithm: rsaEncryption
                Public-Key: (2048 bit)
                Modulus:
                    00:c0:95:08:e1:57:41:f2:71:6d:b7:d2:45:41:27:
                    01:65:c6:45:ae:f2:bc:24:30:b8:95:ce:2f:4e:d6:
                    f6:1c:88:bc:7c:9f:fb:a8:67:7f:fe:5c:9c:51:75:
                    f7:8a:ca:07:e7:35:2f:8f:e1:bd:7b:c0:2f:7c:ab:
                    64:a8:17:fc:ca:5d:7b:ba:e0:21:e5:72:2e:6f:2e:
                    86:d8:95:73:da:ac:1b:53:b9:5f:3f:d7:19:0d:25:
                    4f:e1:63:63:51:8b:0b:64:3f:ad:43:b8:a5:1c:5c:
                    34:b3:ae:00:a0:63:c5:f6:7f:0b:59:68:78:73:a6:
                    8c:18:a9:02:6d:af:c3:19:01:2e:b8:10:e3:c6:cc:
                    40:b4:69:a3:46:33:69:87:6e:c4:bb:17:a6:f3:e8:
                    dd:ad:73:bc:7b:2f:21:b5:fd:66:51:0c:bd:54:b3:
                    e1:6d:5f:1c:bc:23:73:d1:09:03:89:14:d2:10:b9:
                    64:c3:2a:d0:a1:96:4a:bc:e1:d4:1a:5b:c7:a0:c0:
                    c1:63:78:0f:44:37:30:32:96:80:32:23:95:a1:77:
                    ba:13:d2:97:73:e2:5d:25:c9:6a:0d:c3:39:60:a4:
                    b4:b0:69:42:42:09:e9:d8:08:bc:33:20:b3:58:22:
                    a7:aa:eb:c4:e1:e6:61:83:c5:d2:96:df:d9:d0:4f:
                    ad:d7
                Exponent: 65537 (0x10001)
        X509v3 extensions:
            X509v3 Subject Key Identifier: 
                B3:11:32:C9:92:98:84:E2:C9:F8:D0:3B:6E:03:42:CA:1F:0E:8E:3C
            X509v3 Authority Key Identifier: 
                keyid:27:8E:67:11:74:C3:26:1D:3F:ED:33:63:B3:A4:D8:1D:30:E5:E8:D5
                DirName:/C=US/ST=Montana/L=Bozeman/O=Sawtooth/OU=Consulting/CN=www.wolfssl.com/emailAddress=info@wolfssl.com
                serial:81:32:7F:B3:64:03:E0:E2

            X509v3 Basic Constraints: 
                CA:TRUE
    Signature Algorithm: sha256WithRSAEncryption
         39:72:88:11:c5:73:b0:81:1d:6c:90:53:d1:99:6c:6b:72:24:
         74:24:f1:af:ff:72:d9:11:2a:89:6f:e4:a4:4f:34:20:d1:8d:
         76:32:0c:95:1e:d2:4d:07:95:0a:66:72:4e:85:bd:1b:06:e8:
         16:a0:fb:02:a9:b3:98:18:52:12:90:c2:48:29:bf:a6:07:db:
         d0:04:5e:25:2f:15:e3:09:66:9e:ec:44:ab:d4:8c:cc:d0:7c:
         92:44:4b:f4:e0:b2:ef:44:b4:64:53:08:a0:4f:9d:73:26:17:
         c5:ea:75:4f:8f:ad:51:e3:53:8c:35:e8:da:83:8a:ac:c3:9f:
         01:e8:1a:43:97:3a:e4:56:49:1b:61:28:48:c9:4b:c3:ae:b7:
         46:21:9e:ca:63:df:df:f8:78:9f:a9:d3:88:2d:5f:a7:f5:19:
         9c:91:66:57:f9:63:5b:5a:b6:6e:55:d6:34:cf:89:79:d8:23:
         ee:7e:ae:e0:2d:cf:23:5e:d7:c9:6c:53:cb:d1:0c:ee:a5:54:
         d6:7d:61:74:52:e6:40:77:b8:b1:4b:66:99:16:54:1b:a3:53:
         b7:7e:f9:ac:cb:79:c7:6d:ca:a3:d0:b4:fc:68:9e:c1:c3:70:
         0a:3d:b3:d6:e4:ab:9d:f7:26:94:6f:ec:6e:60:bf:0b:6b:2e:
         3f:30:9b:65
-----BEGIN CERTIFICATE-----
MIIEnjCCA4agAwIBAgIBATANBgkqhkiG9w0BAQsFADCBlDELMAkGA1UEBhMCVVMx
EDAOBgNVBAgMB01vbnRhbmExEDAOBgNVBAcMB0JvemVtYW4xETAPBgNVBAoMCFNh
d3Rvb3RoMRMwEQYDVQQLDApDb25zdWx0aW5nMRgwFgYDVQQDDA93d3cud29sZnNz
bC5jb20xHzAdBgkqhkiG9w0BCQEWEGluZm9Ad29sZnNzbC5jb20wHhcNMjEwNzA0
MDQzOTIxWhcNMjQwMzMwMDQzOTIxWjCBkDELMAkGA1UEBhMCVVMxEDAOBgNVBAgM
B01vbnRhbmExEDAOBgNVBAcMB0JvemVtYW4xEDAOBgNVBAoMB3dvbGZTU0wxEDAO
BgNVBAsMB1N1cHBvcnQxGDAWBgNVBAMMD3d3dy53b2xmc3NsLmNvbTEfMB0GCSqG
SIb3DQEJARYQaW5mb0B3b2xmc3NsLmNvbTCCASIwDQYJKoZIhvcNAQEBBQADggEP
ADCCAQoCggEBAMCVCOFXQfJxbbfSRUEnAWXGRa7yvCQwuJXOL07W9hyIvHyf+6hn
f/5cnFF194rKB+c1L4/hvXvAL3yrZKgX/Mpde7rgIeVyLm8uhtiVc9qsG1O5Xz/X
GQ0lT+FjY1GLC2Q/rUO4pRxcNLOuAKBjxfZ/C1loeHOmjBipAm2vwxkBLrgQ48bM
QLRpo0YzaYduxLsXpvPo3a1zvHsvIbX9ZlEMvVSz4W1fHLwjc9EJA4kU0hC5ZMMq
0KGWSrzh1Bpbx6DAwWN4D0Q3MDKWgDIjlaF3uhPSl3PiXSXJag3DOWCktLBpQkIJ
6dgIvDMgs1gip6rrxOHmYYPF0pbf2dBPrdcCAwEAAaOB/DCB+TAdBgNVHQ4EFgQU
sxEyyZKYhOLJ+NA7bgNCyh8OjjwwgckGA1UdIwSBwTCBvoAUJ45nEXTDJh0/7TNj
s6TYHTDl6NWhgZqkgZcwgZQxCzAJBgNVBAYTAlVTMRAwDgYDVQQIDAdNb250YW5h
MRAwDgYDVQQHDAdCb3plbWFuMREwDwYDVQQKDAhTYXd0b290aDETMBEGA1UECwwK
Q29uc3VsdGluZzEYMBYGA1UEAwwPd3d3LndvbGZzc2wuY29tMR8wHQYJKoZIhvcN
AQkBFhBpbmZvQHdvbGZzc2wuY29tggkAgTJ/s2QD4OIwDAYDVR0TBAUwAwEB/zAN
BgkqhkiG9w0BAQsFAAOCAQEAOXKIEcVzsIEdbJBT0Zlsa3IkdCTxr/9y2REqiW/k
pE80INGNdjIMlR7STQeVCmZyToW9GwboFqD7AqmzmBhSEpDCSCm/pgfb0AReJS8V
4wlmnuxEq9SMzNB8kkRL9OCy70S0ZFMIoE+dcyYXxep1T4+tUeNTjDXo2oOKrMOf
AegaQ5c65FZJG2EoSMlLw663RiGeymPf3/h4n6nTiC1fp/UZnJFmV/ljW1q2blXW
NM+Jedgj7n6u4C3PI17XyWxTy9EM7qVU1n1hdFLmQHe4sUtmmRZUG6NTt375rMt5
x23Ko9C0/GiewcNwCj2z1uSrnfcmlG/sbmC/C2suPzCbZQ==
-----END CERTIFICATE-----
Certificate:
    Data:
        Version: 3 (0x2)
        Serial Number:
            81:32:7f:b3:64:03:e0:e2
    Signature Algorithm: sha256WithRSAEncryption
        Issuer: C=US, ST=Montana, L=Bozeman, O=Sawtooth, OU=Consulting, CN=www.wolfssl.com/emailAddress=info@wolfssl.com
        Validity
            Not Before: Jul  4 04:39:21 2021 GMT
            Not After : Mar 30 04:39:21 2024 GMT
        Subject: C=US, ST=Montana, L=Bozeman, O=Sawtooth, OU=Consulting, CN=www.wolfssl.com/emailAddress=info@wolfssl.com
        Subject Public Key Info:
            Public Key Algorithm: rsaEncryption
                Public-Key: (2048 bit)
                Modulus:
                    00:bf:0c:ca:2d:14:b2:1e:84:42:5b:cd:38:1f:4a:
                    f2:4d:75:10:f1:b6:35:9f:df:ca:7d:03:98:d3:ac:
                    de:03:66:ee:2a:f1:d8:b0:7d:6e:07:54:0b:10:98:
                    21:4d:80:cb:12:20:e7:cc:4f:de:45:7d:c9:72:77:
                    32:ea:ca:90:bb:69:52:10:03:2f:a8:f3:95:c5:f1:
                    8b:62:56:1b:ef:67:6f:a4:10:41:95:ad:0a:9b:e3:
                    a5:c0:b0:d2:70:76:50:30:5b:a8:e8:08:2c:7c:ed:
                    a7:a2:7a:8d:38:29:1c:ac:c7:ed:f2:7c:95:b0:95:
                    82:7d:49:5c:38:cd:77:25:ef:bd:80:75:53:94:3c:
                    3d:ca:63:5b:9f:15:b5:d3:1d:13:2f:19:d1:3c:db:
                    76:3a:cc:b8:7d:c9:e5:c2:d7:da:40:6f:d8:21:dc:
                    73:1b:42:2d:53:9c:fe:1a:fc:7d:ab:7a:36:3f:98:
                    de:84:7c:05:67:ce:6a:14:38:87:a9:f1:8c:b5:68:
                    cb:68:7f:71:20:2b:f5:a0:63:f5:56:2f:a3:26:d2:
                    b7:6f:b1:5a:17:d7:38:99:08:fe:93:58:6f:fe:c3:
                    13:49:08:16:0b:a7:4d:67:00:52:31:67:23:4e:98:
                    ed:51:45:1d:b9:04:d9:0b:ec:d8:28:b3:4b:bd:ed:
                    36:79
                Exponent: 65537 (0x10001)
        X509v3 extensions:
            X509v3 Subject Key Identifier: 
                27:8E:67:11:74:C3:26:1D:3F:ED:33:63:B3:A4:D8:1D:30:E5:E8:D5
            X509v3 Authority Key Identifier: 
                keyid:27:8E:67:11:74:C3:26:1D:3F:ED:33:63:B3:A4:D8:1D:30:E5:E8:D5
                DirName:/C=US/ST=Montana/L=Bozeman/O=Sawtooth/OU=Consulting/CN=www.wolfssl.com/emailAddress=info@wolfssl.com
                serial:81:32:7F:B3:64:03:E0:E2

            X509v3 Basic Constraints: 
                CA:TRUE
    Signature Algorithm: sha256WithRSAEncryption
         69:78:92:4f:ee:c9:21:30:b6:22:bb:ec:46:39:9e:34:71:61:
         56:a4:eb:95:82:dd:ba:75:63:dd:5a:2e:ed:0d:10:f3:93:74:
         05:76:07:bf:d5:db:67:08:64:af:c3:2d:6f:53:a0:32:a4:1d:
         dd:83:b7:25:3f:23:73:ca:3e:9c:f1:82:44:c7:d9:f7:78:fe:
         1e:04:a0:e5:bc:27:26:8f:e0:ec:3a:b8:e9:20:d0:2c:92:95:
         4c:32:22:ca:70:8e:1e:c4:c1:53:e4:42:ac:3d:5e:27:d1:0b:
         bd:1a:02:66:39:b2:d5:90:40:10:bf:f9:1a:87:5d:e5:f6:da:
         48:df:d0:cd:36:55:9e:1b:65:bd:5c:f2:8b:62:74:9d:ec:9f:
         e2:d7:44:10:d4:bc:bd:41:dc:a8:c2:c7:d6:cd:6d:91:da:48:
         2f:f9:5f:d6:95:9c:16:69:c2:0e:e2:69:96:be:3d:b9:a5:9c:
         b1:fc:fb:65:5a:35:12:54:aa:f6:69:7a:7d:5d:eb:5e:e7:81:
         13:88:30:ed:0f:70:0e:1c:09:e8:f7:2a:d7:23:3b:a5:78:08:
         d6:3e:a1:89:95:0c:17:ff:3a:d5:ba:ae:a5:25:f7:73:57:cf:
         6e:c1:c8:d2:d0:73:26:8e:f2:1f:22:bc:df:a9:ae:c7:47:89:
         aa:62:06:4a
-----BEGIN CERTIFICATE-----
MIIEqjCCA5KgAwIBAgIJAIEyf7NkA+DiMA0GCSqGSIb3DQEBCwUAMIGUMQswCQYD
VQQGEwJVUzEQMA4GA1UECAwHTW9udGFuYTEQMA4GA1UEBwwHQm96ZW1hbjERMA8G
A1UECgwIU2F3dG9vdGgxEzARBgNVBAsMCkNvbnN1bHRpbmcxGDAWBgNVBAMMD3d3
dy53b2xmc3NsLmNvbTEfMB0GCSqGSIb3DQEJARYQaW5mb0B3b2xmc3NsLmNvbTAe
Fw0yMTA3MDQwNDM5MjFaFw0yNDAzMzAwNDM5MjFaMIGUMQswCQYDVQQGEwJVUzEQ
MA4GA1UECAwHTW9udGFuYTEQMA4GA1UEBwwHQm96ZW1hbjERMA8GA1UECgwIU2F3
dG9vdGgxEzARBgNVBAsMCkNvbnN1bHRpbmcxGDAWBgNVBAMMD3d3dy53b2xmc3Ns
LmNvbTEfMB0GCSqGSIb3DQEJARYQaW5mb0B3b2xmc3NsLmNvbTCCASIwDQYJKoZI
hvcNAQEBBQADggEPADCCAQoCggEBAL8Myi0Ush6EQlvNOB9K8k11EPG2NZ/fyn0D
mNOs3gNm7irx2LB9bgdUCxCYIU2AyxIg58xP3kV9yXJ3MurKkLtpUhADL6jzlcXx
i2JWG+9nb6QQQZWtCpvjpcCw0nB2UDBbqOgILHztp6J6jTgpHKzH7fJ8lbCVgn1J
XDjNdyXvvYB1U5Q8PcpjW58VtdMdEy8Z0TzbdjrMuH3J5cLX2kBv2CHccxtCLVOc
/hr8fat6Nj+Y3oR8BWfOahQ4h6nxjLVoy2h/cSAr9aBj9VYvoybSt2+xWhfXOJkI
/pNYb/7DE0kIFgunTWcAUjFnI06Y7VFFHbkE2Qvs2CizS73tNnkCAwEAAaOB/DCB
+TAdBgNVHQ4EFgQUJ45nEXTDJh0/7TNjs6TYHTDl6NUwgckGA1UdIwSBwTCBvoAU
J45nEXTDJh0/7TNjs6TYHTDl6NWhgZqkgZcwgZQxCzAJBgNVBAYTAlVTMRAwDgYD
VQQIDAdNb250YW5hMRAwDgYDVQQHDAdCb3plbWFuMREwDwYDVQQKDAhTYXd0b290
aDETMBEGA1UECwwKQ29uc3VsdGluZzEYMBYGA1UEAwwPd3d3LndvbGZzc2wuY29t
MR8wHQYJKoZIhvcNAQkBFhBpbmZvQHdvbGZzc2wuY29tggkAgTJ/s2QD4OIwDAYD
VR0TBAUwAwEB/zANBgkqhkiG9w0BAQsFAAOCAQEAaXiST+7JITC2IrvsRjmeNHFh
VqTrlYLdunVj3Vou7Q0Q85N0BXYHv9XbZwhkr8Mtb1OgMqQd3YO3JT8jc8o+nPGC
RMfZ93j+HgSg5bwnJo/g7Dq46SDQLJKVTDIiynCOHsTBU+RCrD1eJ9ELvRoCZjmy
1ZBAEL/5Godd5fbaSN/QzTZVnhtlvVzyi2J0neyf4tdEENS8vUHcqMLH1s1tkdpI
L/lf1pWcFmnCDuJplr49uaWcsfz7ZVo1ElSq9ml6fV3rXueBE4gw7Q9wDhwJ6Pcq
1yM7pXgI1j6hiZUMF/861bqupSX3c1fPbsHI0tBzJo7yHyK836mux0eJqmIGSg==
-----END CERTIFICATE-----
