Certificate:
    Data:
        Version: 3 (0x2)
        Serial Number: 1 (0x1)
    Signature Algorithm: sha256WithRSAEncryption
        Issuer: C=US, ST=Montana, L=Bozeman, O=Sawtooth, OU=Consulting, CN=www.wolfssl.com/emailAddress=info@wolfssl.com
        Validity
            Not Before: Jul  4 04:39:21 2021 GMT
            Not After : Mar 30 04:39:21 2024 GMT
        Subject: C=US, ST=Montana, L=Bozeman, O=Elliptic - RSAsig, OU=ECC-RSAsig, CN=www.wolfssl.com/emailAddress=info@wolfssl.com
        Subject Public Key Info:
            Public Key Algorithm: id-ecPublicKey
                Public-Key: (256 bit)
                pub: 
                    04:bb:33:ac:4c:27:50:4a:c6:4a:a5:04:c3:3c:de:
                    9f:36:db:72:2d:ce:94:ea:2b:fa:cb:20:09:39:2c:
                    16:e8:61:02:e9:af:4d:d3:02:93:9a:31:5b:97:92:
                    21:7f:f0:cf:18:da:91:11:02:34:86:e8:20:58:33:
                    0b:80:34:89:d8
                ASN1 OID: prime256v1
                NIST CURVE: P-256
        X509v3 extensions:
            X509v3 Subject Key Identifier: 
                5D:5D:26:EF:AC:7E:36:F9:9B:76:15:2B:4A:25:02:23:EF:B2:89:30
            X509v3 Authority Key Identifier: 
                keyid:27:8E:67:11:74:C3:26:1D:3F:ED:33:63:B3:A4:D8:1D:30:E5:E8:D5
                DirName:/C=US/ST=Montana/L=Bozeman/O=Sawtooth/OU=Consulting/CN=www.wolfssl.com/emailAddress=info@wolfssl.com
                serial:81:32:7F:B3:64:03:E0:E2

            X509v3 Basic Constraints: 
                CA:TRUE
    Signature Algorithm: sha256WithRSAEncryption
         0e:6f:65:21:57:e9:b3:09:69:14:98:ff:a2:03:28:74:b9:43:
         50:5f:35:05:9b:fc:b4:6f:06:91:75:be:cd:5f:29:72:d0:af:
         34:d8:68:7c:05:3f:09:3a:75:d5:ff:02:7a:4d:f7:97:02:55:
         c0:3e:11:25:69:78:88:97:8d:b7:4a:26:42:f6:18:f8:f9:2b:
         ca:22:b4:46:c2:71:01:ad:c4:be:7f:8e:0e:c7:c0:73:2d:33:
         a2:c8:75:ec:62:8c:d3:2d:ad:30:f5:59:49:cd:55:f5:ad:e3:
         6d:89:37:5e:34:c1:23:49:a0:5f:0f:12:ad:8e:0b:ee:59:e4:
         6f:be:c9:83:ca:4b:c9:88:e7:ae:ed:78:de:47:1c:cf:66:4d:
         0c:ab:57:ad:c6:53:23:0e:2d:38:4a:9b:2b:a4:2a:10:5d:ae:
         03:41:37:c9:7e:82:9e:8a:29:72:be:ef:df:e5:ef:ab:3f:6c:
         a5:ac:ea:9c:73:8f:64:9f:da:23:a7:98:ac:c4:eb:ce:6f:f7:
         63:73:37:10:b4:3d:c1:f4:f6:e4:cd:a3:0a:30:9d:2d:4a:7b:
         f2:59:ef:17:ba:ec:96:35:c9:1a:dc:ef:09:09:ea:a4:b6:4b:
         db:9d:eb:51:09:10:84:08:ab:ab:32:d4:a6:f8:a8:91:9b:59:
         81:f2:72:5f
-----BEGIN CERTIFICATE-----
MIID4DCCAsigAwIBAgIBATANBgkqhkiG9w0BAQsFADCBlDELMAkGA1UEBhMCVVMx
EDAOBgNVBAgMB01vbnRhbmExEDAOBgNVBAcMB0JvemVtYW4xETAPBgNVBAoMCFNh
d3Rvb3RoMRMwEQYDVQQLDApDb25zdWx0aW5nMRgwFgYDVQQDDA93d3cud29sZnNz
bC5jb20xHzAdBgkqhkiG9w0BCQEWEGluZm9Ad29sZnNzbC5jb20wHhcNMjEwNzA0
MDQzOTIxWhcNMjQwMzMwMDQzOTIxWjCBnTELMAkGA1UEBhMCVVMxEDAOBgNVBAgM
B01vbnRhbmExEDAOBgNVBAcMB0JvemVtYW4xGjAYBgNVBAoMEUVsbGlwdGljIC0g
UlNBc2lnMRMwEQYDVQQLDApFQ0MtUlNBc2lnMRgwFgYDVQQDDA93d3cud29sZnNz
bC5jb20xHzAdBgkqhkiG9w0BCQEWEGluZm9Ad29sZnNzbC5jb20wWTATBgcqhkjO
PQIBBggqhkjOPQMBBwNCAAS7M6xMJ1BKxkqlBMM83p8223ItzpTqK/rLIAk5LBbo
YQLpr03TApOaMVuXkiF/8M8Y2pERAjSG6CBYMwuANInYo4H8MIH5MB0GA1UdDgQW
BBRdXSbvrH42+Zt2FStKJQIj77KJMDCByQYDVR0jBIHBMIG+gBQnjmcRdMMmHT/t
M2OzpNgdMOXo1aGBmqSBlzCBlDELMAkGA1UEBhMCVVMxEDAOBgNVBAgMB01vbnRh
bmExEDAOBgNVBAcMB0JvemVtYW4xETAPBgNVBAoMCFNhd3Rvb3RoMRMwEQYDVQQL
DApDb25zdWx0aW5nMRgwFgYDVQQDDA93d3cud29sZnNzbC5jb20xHzAdBgkqhkiG
9w0BCQEWEGluZm9Ad29sZnNzbC5jb22CCQCBMn+zZAPg4jAMBgNVHRMEBTADAQH/
MA0GCSqGSIb3DQEBCwUAA4IBAQAOb2UhV+mzCWkUmP+iAyh0uUNQXzUFm/y0bwaR
db7NXyly0K802Gh8BT8JOnXV/wJ6TfeXAlXAPhElaXiIl423SiZC9hj4+SvKIrRG
wnEBrcS+f44Ox8BzLTOiyHXsYozTLa0w9VlJzVX1reNtiTdeNMEjSaBfDxKtjgvu
WeRvvsmDykvJiOeu7XjeRxzPZk0Mq1etxlMjDi04SpsrpCoQXa4DQTfJfoKeiily
vu/f5e+rP2ylrOqcc49kn9ojp5isxOvOb/djczcQtD3B9PbkzaMKMJ0tSnvyWe8X
uuyWNcka3O8JCeqktkvbnetRCRCECKurMtSm+KiRm1mB8nJf
-----END CERTIFICATE-----
