Certificate:
    Data:
        Version: 3 (0x2)
        Serial Number: 2 (0x2)
    Signature Algorithm: sha256WithRSAEncryption
        Issuer: C=US, ST=Montana, L=Bozeman, O=Sawtooth, OU=Consulting, CN=www.wolfssl.com/emailAddress=info@wolfssl.com
        Validity
            Not Before: Jan 26 23:39:20 2023 GMT
            Not After : Oct 22 23:39:20 2025 GMT
        Subject: C=US, ST=Montana, L=Bozeman, O=wolfSSL_revoked, OU=Support_revoked, CN=www.wolfssl.com/emailAddress=info@wolfssl.com
        Subject Public Key Info:
            Public Key Algorithm: rsaEncryption
                Public-Key: (2048 bit)
                Modulus:
                    00:b0:14:16:3a:43:dd:e1:50:45:4f:cf:80:b3:dd:
                    66:96:c7:e9:f4:dc:de:b6:6b:24:1b:76:48:ac:c6:
                    23:a5:a7:e4:05:19:bd:b7:f6:de:fa:ff:ed:5b:3c:
                    79:8a:a9:d5:f1:fb:eb:c8:b1:e4:b2:ab:52:72:89:
                    93:22:5c:ba:cd:8a:36:2a:2c:d1:40:ec:a8:66:0e:
                    c3:76:cd:e7:b3:a3:0a:1e:dd:4a:07:82:17:81:ba:
                    de:57:ce:b6:32:81:c7:bd:11:bb:e9:15:22:4e:e2:
                    16:ac:e3:d4:c0:68:88:6c:11:fc:c2:bd:1b:db:1d:
                    fd:e6:43:c7:1b:33:b8:f4:e5:1b:59:39:12:38:4d:
                    2d:9b:64:68:98:fc:8d:72:12:91:f2:24:25:6c:4c:
                    4a:48:57:92:00:cc:7e:d8:d4:3d:b8:1d:f2:9e:ea:
                    b2:23:0f:51:0f:11:41:1c:f5:27:00:1b:08:7a:12:
                    3a:05:5b:03:24:fe:b1:7b:20:fa:e4:a8:58:c6:ca:
                    ce:7f:be:95:01:12:9d:05:e6:39:13:1b:c0:3e:56:
                    2e:2b:9f:76:37:de:de:9b:e0:0d:7a:63:0d:a7:22:
                    58:db:31:c7:f7:b4:46:5c:ba:b6:4b:48:b1:18:9a:
                    68:b3:63:47:fd:af:12:5f:2f:fe:10:cb:58:2b:33:
                    68:85
                Exponent: 65537 (0x10001)
        X509v3 extensions:
            X509v3 Subject Key Identifier: 
                D8:09:2B:59:E1:2A:EE:D9:EE:40:AA:9C:AB:F0:5D:28:09:4F:22:BB
            X509v3 Authority Key Identifier: 
                keyid:27:8E:67:11:74:C3:26:1D:3F:ED:33:63:B3:A4:D8:1D:30:E5:E8:D5
                DirName:/C=US/ST=Montana/L=Bozeman/O=Sawtooth/OU=Consulting/CN=www.wolfssl.com/emailAddress=info@wolfssl.com
                serial:DC:04:23:A3:29:1F:DB:5E

            X509v3 Basic Constraints: 
                CA:TRUE
    Signature Algorithm: sha256WithRSAEncryption
         05:ce:e7:62:83:a8:44:25:ee:a6:14:ad:15:46:94:67:1f:21:
         71:ec:73:94:2d:ec:18:b9:6a:3f:67:31:1b:20:13:e5:11:9f:
         e8:9e:53:1b:a1:f3:7a:58:35:02:f6:b8:fd:c3:11:5c:c2:d3:
         b8:87:f9:e1:5e:49:6c:47:77:72:93:96:86:d7:67:fa:b5:2e:
         39:e1:8a:52:31:a9:ac:2b:05:80:1d:15:3a:be:d6:67:4f:31:
         1c:0d:d2:62:7e:cc:4a:a8:06:c6:35:8d:94:b9:1b:98:87:ac:
         a1:60:44:da:ca:c1:13:74:bf:d8:e2:30:77:14:8f:3d:6d:9e:
         bd:0c:b6:c7:31:c5:9f:69:e4:d1:62:64:c1:a8:38:db:9b:9b:
         28:5e:dd:83:6a:d5:a5:4e:54:9f:ee:42:1f:e1:35:c9:68:1d:
         59:ba:0a:9e:87:c2:54:e9:e8:c5:f5:41:e3:88:0b:ce:63:f7:
         a3:40:96:dd:12:b5:b3:69:1f:07:fe:a1:6d:77:68:88:80:61:
         28:8b:6d:b3:29:aa:70:23:38:fc:cd:c2:5e:3b:26:84:49:4f:
         0f:27:ee:e4:92:c6:5d:6d:88:3a:45:d9:dd:cc:72:d2:89:a1:
         e1:b2:c2:45:c2:b8:f0:a8:95:ee:c6:10:e3:80:f0:d2:42:c5:
         2e:c0:d4:32
-----BEGIN CERTIFICATE-----
MIIErjCCA5agAwIBAgIBAjANBgkqhkiG9w0BAQsFADCBlDELMAkGA1UEBhMCVVMx
EDAOBgNVBAgMB01vbnRhbmExEDAOBgNVBAcMB0JvemVtYW4xETAPBgNVBAoMCFNh
d3Rvb3RoMRMwEQYDVQQLDApDb25zdWx0aW5nMRgwFgYDVQQDDA93d3cud29sZnNz
bC5jb20xHzAdBgkqhkiG9w0BCQEWEGluZm9Ad29sZnNzbC5jb20wHhcNMjMwMTI2
MjMzOTIwWhcNMjUxMDIyMjMzOTIwWjCBoDELMAkGA1UEBhMCVVMxEDAOBgNVBAgM
B01vbnRhbmExEDAOBgNVBAcMB0JvemVtYW4xGDAWBgNVBAoMD3dvbGZTU0xfcmV2
b2tlZDEYMBYGA1UECwwPU3VwcG9ydF9yZXZva2VkMRgwFgYDVQQDDA93d3cud29s
ZnNzbC5jb20xHzAdBgkqhkiG9w0BCQEWEGluZm9Ad29sZnNzbC5jb20wggEiMA0G
CSqGSIb3DQEBAQUAA4IBDwAwggEKAoIBAQCwFBY6Q93hUEVPz4Cz3WaWx+n03N62
ayQbdkisxiOlp+QFGb239t76/+1bPHmKqdXx++vIseSyq1JyiZMiXLrNijYqLNFA
7KhmDsN2zeezowoe3UoHgheBut5XzrYygce9EbvpFSJO4has49TAaIhsEfzCvRvb
Hf3mQ8cbM7j05RtZORI4TS2bZGiY/I1yEpHyJCVsTEpIV5IAzH7Y1D24HfKe6rIj
D1EPEUEc9ScAGwh6EjoFWwMk/rF7IPrkqFjGys5/vpUBEp0F5jkTG8A+Vi4rn3Y3
3t6b4A16Yw2nIljbMcf3tEZcurZLSLEYmmizY0f9rxJfL/4Qy1grM2iFAgMBAAGj
gfwwgfkwHQYDVR0OBBYEFNgJK1nhKu7Z7kCqnKvwXSgJTyK7MIHJBgNVHSMEgcEw
gb6AFCeOZxF0wyYdP+0zY7Ok2B0w5ejVoYGapIGXMIGUMQswCQYDVQQGEwJVUzEQ
MA4GA1UECAwHTW9udGFuYTEQMA4GA1UEBwwHQm96ZW1hbjERMA8GA1UECgwIU2F3
dG9vdGgxEzARBgNVBAsMCkNvbnN1bHRpbmcxGDAWBgNVBAMMD3d3dy53b2xmc3Ns
LmNvbTEfMB0GCSqGSIb3DQEJARYQaW5mb0B3b2xmc3NsLmNvbYIJANwEI6MpH9te
MAwGA1UdEwQFMAMBAf8wDQYJKoZIhvcNAQELBQADggEBAAXO52KDqEQl7qYUrRVG
lGcfIXHsc5Qt7Bi5aj9nMRsgE+URn+ieUxuh83pYNQL2uP3DEVzC07iH+eFeSWxH
d3KTlobXZ/q1LjnhilIxqawrBYAdFTq+1mdPMRwN0mJ+zEqoBsY1jZS5G5iHrKFg
RNrKwRN0v9jiMHcUjz1tnr0MtscxxZ9p5NFiZMGoONubmyhe3YNq1aVOVJ/uQh/h
NcloHVm6Cp6HwlTp6MX1QeOIC85j96NAlt0StbNpHwf+oW13aIiAYSiLbbMpqnAj
OPzNwl47JoRJTw8n7uSSxl1tiDpF2d3MctKJoeGywkXCuPCole7GEOOA8NJCxS7A
1DI=
-----END CERTIFICATE-----
Certificate:
    Data:
        Version: 3 (0x2)
        Serial Number:
            dc:04:23:a3:29:1f:db:5e
    Signature Algorithm: sha256WithRSAEncryption
        Issuer: C=US, ST=Montana, L=Bozeman, O=Sawtooth, OU=Consulting, CN=www.wolfssl.com/emailAddress=info@wolfssl.com
        Validity
            Not Before: Jan 26 23:38:02 2023 GMT
            Not After : Oct 22 23:38:02 2025 GMT
        Subject: C=US, ST=Montana, L=Bozeman, O=Sawtooth, OU=Consulting, CN=www.wolfssl.com/emailAddress=info@wolfssl.com
        Subject Public Key Info:
            Public Key Algorithm: rsaEncryption
                Public-Key: (2048 bit)
                Modulus:
                    00:bf:0c:ca:2d:14:b2:1e:84:42:5b:cd:38:1f:4a:
                    f2:4d:75:10:f1:b6:35:9f:df:ca:7d:03:98:d3:ac:
                    de:03:66:ee:2a:f1:d8:b0:7d:6e:07:54:0b:10:98:
                    21:4d:80:cb:12:20:e7:cc:4f:de:45:7d:c9:72:77:
                    32:ea:ca:90:bb:69:52:10:03:2f:a8:f3:95:c5:f1:
                    8b:62:56:1b:ef:67:6f:a4:10:41:95:ad:0a:9b:e3:
                    a5:c0:b0:d2:70:76:50:30:5b:a8:e8:08:2c:7c:ed:
                    a7:a2:7a:8d:38:29:1c:ac:c7:ed:f2:7c:95:b0:95:
                    82:7d:49:5c:38:cd:77:25:ef:bd:80:75:53:94:3c:
                    3d:ca:63:5b:9f:15:b5:d3:1d:13:2f:19:d1:3c:db:
                    76:3a:cc:b8:7d:c9:e5:c2:d7:da:40:6f:d8:21:dc:
                    73:1b:42:2d:53:9c:fe:1a:fc:7d:ab:7a:36:3f:98:
                    de:84:7c:05:67:ce:6a:14:38:87:a9:f1:8c:b5:68:
                    cb:68:7f:71:20:2b:f5:a0:63:f5:56:2f:a3:26:d2:
                    b7:6f:b1:5a:17:d7:38:99:08:fe:93:58:6f:fe:c3:
                    13:49:08:16:0b:a7:4d:67:00:52:31:67:23:4e:98:
                    ed:51:45:1d:b9:04:d9:0b:ec:d8:28:b3:4b:bd:ed:
                    36:79
                Exponent: 65537 (0x10001)
        X509v3 extensions:
            X509v3 Subject Key Identifier: 
                27:8E:67:11:74:C3:26:1D:3F:ED:33:63:B3:A4:D8:1D:30:E5:E8:D5
            X509v3 Authority Key Identifier: 
                keyid:27:8E:67:11:74:C3:26:1D:3F:ED:33:63:B3:A4:D8:1D:30:E5:E8:D5
                DirName:/C=US/ST=Montana/L=Bozeman/O=Sawtooth/OU=Consulting/CN=www.wolfssl.com/emailAddress=info@wolfssl.com
                serial:DC:04:23:A3:29:1F:DB:5E

            X509v3 Basic Constraints: 
                CA:TRUE
    Signature Algorithm: sha256WithRSAEncryption
         24:c2:6c:03:e3:3e:c8:46:94:65:84:25:b9:ba:25:41:83:fb:
         c6:b1:70:9d:8e:43:b6:f3:9d:e1:9d:a8:05:94:71:5d:77:15:
         89:51:fb:ed:c1:9b:8f:01:c2:b4:75:b3:95:28:73:b5:fb:10:
         51:68:8a:0f:d2:d4:de:a0:36:fb:ad:5d:89:f0:39:82:0d:5b:
         58:78:4e:68:7b:c9:fb:77:da:db:1b:43:94:8b:55:18:af:b6:
         d9:8e:ed:fe:00:3e:8d:c7:de:5a:75:35:da:8e:2a:98:e9:1e:
         2a:a4:3b:c4:02:de:86:c6:5a:56:57:23:d5:ea:80:11:47:1a:
         a9:21:9d:6d:e6:20:66:e6:cd:44:5a:be:57:20:c7:dc:82:a1:
         c7:b4:b8:4d:31:99:dd:1f:79:25:8b:f8:2f:29:21:9f:40:c2:
         d3:ac:4e:f3:30:4c:42:32:61:3e:9e:63:b2:6f:76:40:76:08:
         a8:ca:b9:10:96:b3:4e:d3:a6:67:5d:be:ff:fd:7b:8d:13:8d:
         44:77:75:ae:16:a6:9d:fb:01:ef:dd:b8:45:1c:2f:49:78:da:
         d5:2a:19:d4:af:53:58:22:d4:16:be:a7:18:b0:4a:7a:ae:f6:
         d3:6e:bb:e3:75:82:f5:cf:9d:f1:ae:69:db:f0:7d:61:bf:6c:
         a3:09:6a:0b
-----BEGIN CERTIFICATE-----
MIIEqjCCA5KgAwIBAgIJANwEI6MpH9teMA0GCSqGSIb3DQEBCwUAMIGUMQswCQYD
VQQGEwJVUzEQMA4GA1UECAwHTW9udGFuYTEQMA4GA1UEBwwHQm96ZW1hbjERMA8G
A1UECgwIU2F3dG9vdGgxEzARBgNVBAsMCkNvbnN1bHRpbmcxGDAWBgNVBAMMD3d3
dy53b2xmc3NsLmNvbTEfMB0GCSqGSIb3DQEJARYQaW5mb0B3b2xmc3NsLmNvbTAe
Fw0yMzAxMjYyMzM4MDJaFw0yNTEwMjIyMzM4MDJaMIGUMQswCQYDVQQGEwJVUzEQ
MA4GA1UECAwHTW9udGFuYTEQMA4GA1UEBwwHQm96ZW1hbjERMA8GA1UECgwIU2F3
dG9vdGgxEzARBgNVBAsMCkNvbnN1bHRpbmcxGDAWBgNVBAMMD3d3dy53b2xmc3Ns
LmNvbTEfMB0GCSqGSIb3DQEJARYQaW5mb0B3b2xmc3NsLmNvbTCCASIwDQYJKoZI
hvcNAQEBBQADggEPADCCAQoCggEBAL8Myi0Ush6EQlvNOB9K8k11EPG2NZ/fyn0D
mNOs3gNm7irx2LB9bgdUCxCYIU2AyxIg58xP3kV9yXJ3MurKkLtpUhADL6jzlcXx
i2JWG+9nb6QQQZWtCpvjpcCw0nB2UDBbqOgILHztp6J6jTgpHKzH7fJ8lbCVgn1J
XDjNdyXvvYB1U5Q8PcpjW58VtdMdEy8Z0TzbdjrMuH3J5cLX2kBv2CHccxtCLVOc
/hr8fat6Nj+Y3oR8BWfOahQ4h6nxjLVoy2h/cSAr9aBj9VYvoybSt2+xWhfXOJkI
/pNYb/7DE0kIFgunTWcAUjFnI06Y7VFFHbkE2Qvs2CizS73tNnkCAwEAAaOB/DCB
+TAdBgNVHQ4EFgQUJ45nEXTDJh0/7TNjs6TYHTDl6NUwgckGA1UdIwSBwTCBvoAU
J45nEXTDJh0/7TNjs6TYHTDl6NWhgZqkgZcwgZQxCzAJBgNVBAYTAlVTMRAwDgYD
VQQIDAdNb250YW5hMRAwDgYDVQQHDAdCb3plbWFuMREwDwYDVQQKDAhTYXd0b290
aDETMBEGA1UECwwKQ29uc3VsdGluZzEYMBYGA1UEAwwPd3d3LndvbGZzc2wuY29t
MR8wHQYJKoZIhvcNAQkBFhBpbmZvQHdvbGZzc2wuY29tggkA3AQjoykf214wDAYD
VR0TBAUwAwEB/zANBgkqhkiG9w0BAQsFAAOCAQEAJMJsA+M+yEaUZYQlubolQYP7
xrFwnY5DtvOd4Z2oBZRxXXcViVH77cGbjwHCtHWzlShztfsQUWiKD9LU3qA2+61d
ifA5gg1bWHhOaHvJ+3fa2xtDlItVGK+22Y7t/gA+jcfeWnU12o4qmOkeKqQ7xALe
hsZaVlcj1eqAEUcaqSGdbeYgZubNRFq+VyDH3IKhx7S4TTGZ3R95JYv4Lykhn0DC
06xO8zBMQjJhPp5jsm92QHYIqMq5EJazTtOmZ12+//17jRONRHd1rhamnfsB7924
RRwvSXja1SoZ1K9TWCLUFr6nGLBKeq72026743WC9c+d8a5p2/B9Yb9sowlqCw==
-----END CERTIFICATE-----
