Certificate:
    Data:
        Version: 3 (0x2)
        Serial Number: 1 (0x1)
    Signature Algorithm: sha256WithRSAEncryption
        Issuer: C=US, ST=Montana, L=Bozeman, O=Sawtooth, OU=Consulting, CN=www.wolfssl.com/emailAddress=info@wolfssl.com
        Validity
            Not Before: Jan 26 23:38:02 2023 GMT
            Not After : Oct 22 23:38:02 2025 GMT
        Subject: C=US, ST=Montana, L=Bozeman, O=wolfSSL, OU=Support, CN=www.wolfssl.com/emailAddress=info@wolfssl.com
        Subject Public Key Info:
            Public Key Algorithm: rsaEncryption
                Public-Key: (2048 bit)
                Modulus:
                    00:c0:95:08:e1:57:41:f2:71:6d:b7:d2:45:41:27:
                    01:65:c6:45:ae:f2:bc:24:30:b8:95:ce:2f:4e:d6:
                    f6:1c:88:bc:7c:9f:fb:a8:67:7f:fe:5c:9c:51:75:
                    f7:8a:ca:07:e7:35:2f:8f:e1:bd:7b:c0:2f:7c:ab:
                    64:a8:17:fc:ca:5d:7b:ba:e0:21:e5:72:2e:6f:2e:
                    86:d8:95:73:da:ac:1b:53:b9:5f:3f:d7:19:0d:25:
                    4f:e1:63:63:51:8b:0b:64:3f:ad:43:b8:a5:1c:5c:
                    34:b3:ae:00:a0:63:c5:f6:7f:0b:59:68:78:73:a6:
                    8c:18:a9:02:6d:af:c3:19:01:2e:b8:10:e3:c6:cc:
                    40:b4:69:a3:46:33:69:87:6e:c4:bb:17:a6:f3:e8:
                    dd:ad:73:bc:7b:2f:21:b5:fd:66:51:0c:bd:54:b3:
                    e1:6d:5f:1c:bc:23:73:d1:09:03:89:14:d2:10:b9:
                    64:c3:2a:d0:a1:96:4a:bc:e1:d4:1a:5b:c7:a0:c0:
                    c1:63:78:0f:44:37:30:32:96:80:32:23:95:a1:77:
                    ba:13:d2:97:73:e2:5d:25:c9:6a:0d:c3:39:60:a4:
                    b4:b0:69:42:42:09:e9:d8:08:bc:33:20:b3:58:22:
                    a7:aa:eb:c4:e1:e6:61:83:c5:d2:96:df:d9:d0:4f:
                    ad:d7
                Exponent: 65537 (0x10001)
        X509v3 extensions:
            X509v3 Subject Key Identifier: 
                B3:11:32:C9:92:98:84:E2:C9:F8:D0:3B:6E:03:42:CA:1F:0E:8E:3C
            X509v3 Authority Key Identifier: 
                keyid:27:8E:67:11:74:C3:26:1D:3F:ED:33:63:B3:A4:D8:1D:30:E5:E8:D5
                DirName:/C=US/ST=Montana/L=Bozeman/O=Sawtooth/OU=Consulting/CN=www.wolfssl.com/emailAddress=info@wolfssl.com
                serial:DC:04:23:A3:29:1F:DB:5E

            X509v3 Basic Constraints: 
                CA:TRUE
    Signature Algorithm: sha256WithRSAEncryption
         2a:85:33:33:59:74:0e:d2:70:83:5d:1c:08:0b:01:5f:d9:25:
         b8:75:f9:ec:4f:a6:2e:14:3b:c8:a5:87:b9:85:f7:57:93:8d:
         f9:74:c4:81:f8:7b:97:ea:ea:91:b0:8d:dd:41:e7:65:2e:36:
         d5:5d:c0:41:c3:4d:3e:71:df:3d:86:48:bc:bc:80:3e:19:66:
         67:cb:d9:0b:4f:3a:67:e3:6f:37:36:2b:df:86:2e:de:85:94:
         ac:31:9f:d7:0a:06:e7:53:8c:54:66:53:9b:9c:bb:7e:99:e3:
         62:f6:41:c5:14:0f:f9:58:13:43:23:ed:b2:df:52:e1:e4:d5:
         31:c8:3b:b0:04:c1:eb:66:f6:c0:53:a1:07:a4:d2:e6:55:0a:
         b9:44:35:26:95:03:c0:c5:95:de:2c:66:2a:d0:21:a5:1d:87:
         c5:e2:d0:d2:d4:4e:d2:b5:66:71:83:85:ba:69:bb:5a:37:fd:
         08:72:74:82:cc:4b:f0:09:f1:b4:0e:98:c3:79:2f:9e:4d:be:
         2f:b4:6e:e9:d5:90:9f:f7:16:0f:cd:d2:1a:67:29:36:6f:c6:
         9b:b6:34:c0:7a:05:57:c8:49:a0:5c:8f:fc:5d:64:ad:e1:61:
         9d:83:0e:5a:77:b7:76:1f:2b:7a:6a:21:f6:38:91:da:37:2d:
         a3:5a:ee:ad
-----BEGIN CERTIFICATE-----
MIIEnjCCA4agAwIBAgIBATANBgkqhkiG9w0BAQsFADCBlDELMAkGA1UEBhMCVVMx
EDAOBgNVBAgMB01vbnRhbmExEDAOBgNVBAcMB0JvemVtYW4xETAPBgNVBAoMCFNh
d3Rvb3RoMRMwEQYDVQQLDApDb25zdWx0aW5nMRgwFgYDVQQDDA93d3cud29sZnNz
bC5jb20xHzAdBgkqhkiG9w0BCQEWEGluZm9Ad29sZnNzbC5jb20wHhcNMjMwMTI2
MjMzODAyWhcNMjUxMDIyMjMzODAyWjCBkDELMAkGA1UEBhMCVVMxEDAOBgNVBAgM
B01vbnRhbmExEDAOBgNVBAcMB0JvemVtYW4xEDAOBgNVBAoMB3dvbGZTU0wxEDAO
BgNVBAsMB1N1cHBvcnQxGDAWBgNVBAMMD3d3dy53b2xmc3NsLmNvbTEfMB0GCSqG
SIb3DQEJARYQaW5mb0B3b2xmc3NsLmNvbTCCASIwDQYJKoZIhvcNAQEBBQADggEP
ADCCAQoCggEBAMCVCOFXQfJxbbfSRUEnAWXGRa7yvCQwuJXOL07W9hyIvHyf+6hn
f/5cnFF194rKB+c1L4/hvXvAL3yrZKgX/Mpde7rgIeVyLm8uhtiVc9qsG1O5Xz/X
GQ0lT+FjY1GLC2Q/rUO4pRxcNLOuAKBjxfZ/C1loeHOmjBipAm2vwxkBLrgQ48bM
QLRpo0YzaYduxLsXpvPo3a1zvHsvIbX9ZlEMvVSz4W1fHLwjc9EJA4kU0hC5ZMMq
0KGWSrzh1Bpbx6DAwWN4D0Q3MDKWgDIjlaF3uhPSl3PiXSXJag3DOWCktLBpQkIJ
6dgIvDMgs1gip6rrxOHmYYPF0pbf2dBPrdcCAwEAAaOB/DCB+TAdBgNVHQ4EFgQU
sxEyyZKYhOLJ+NA7bgNCyh8OjjwwgckGA1UdIwSBwTCBvoAUJ45nEXTDJh0/7TNj
s6TYHTDl6NWhgZqkgZcwgZQxCzAJBgNVBAYTAlVTMRAwDgYDVQQIDAdNb250YW5h
MRAwDgYDVQQHDAdCb3plbWFuMREwDwYDVQQKDAhTYXd0b290aDETMBEGA1UECwwK
Q29uc3VsdGluZzEYMBYGA1UEAwwPd3d3LndvbGZzc2wuY29tMR8wHQYJKoZIhvcN
AQkBFhBpbmZvQHdvbGZzc2wuY29tggkA3AQjoykf214wDAYDVR0TBAUwAwEB/zAN
BgkqhkiG9w0BAQsFAAOCAQEAKoUzM1l0DtJwg10cCAsBX9kluHX57E+mLhQ7yKWH
uYX3V5ON+XTEgfh7l+rqkbCN3UHnZS421V3AQcNNPnHfPYZIvLyAPhlmZ8vZC086
Z+NvNzYr34Yu3oWUrDGf1woG51OMVGZTm5y7fpnjYvZBxRQP+VgTQyPtst9S4eTV
Mcg7sATB62b2wFOhB6TS5lUKuUQ1JpUDwMWV3ixmKtAhpR2HxeLQ0tRO0rVmcYOF
umm7Wjf9CHJ0gsxL8AnxtA6Yw3kvnk2+L7Ru6dWQn/cWD83SGmcpNm/Gm7Y0wHoF
V8hJoFyP/F1kreFhnYMOWne3dh8remoh9jiR2jcto1rurQ==
-----END CERTIFICATE-----
Certificate:
    Data:
        Version: 3 (0x2)
        Serial Number:
            dc:04:23:a3:29:1f:db:5e
    Signature Algorithm: sha256WithRSAEncryption
        Issuer: C=US, ST=Montana, L=Bozeman, O=Sawtooth, OU=Consulting, CN=www.wolfssl.com/emailAddress=info@wolfssl.com
        Validity
            Not Before: Jan 26 23:38:02 2023 GMT
            Not After : Oct 22 23:38:02 2025 GMT
        Subject: C=US, ST=Montana, L=Bozeman, O=Sawtooth, OU=Consulting, CN=www.wolfssl.com/emailAddress=info@wolfssl.com
        Subject Public Key Info:
            Public Key Algorithm: rsaEncryption
                Public-Key: (2048 bit)
                Modulus:
                    00:bf:0c:ca:2d:14:b2:1e:84:42:5b:cd:38:1f:4a:
                    f2:4d:75:10:f1:b6:35:9f:df:ca:7d:03:98:d3:ac:
                    de:03:66:ee:2a:f1:d8:b0:7d:6e:07:54:0b:10:98:
                    21:4d:80:cb:12:20:e7:cc:4f:de:45:7d:c9:72:77:
                    32:ea:ca:90:bb:69:52:10:03:2f:a8:f3:95:c5:f1:
                    8b:62:56:1b:ef:67:6f:a4:10:41:95:ad:0a:9b:e3:
                    a5:c0:b0:d2:70:76:50:30:5b:a8:e8:08:2c:7c:ed:
                    a7:a2:7a:8d:38:29:1c:ac:c7:ed:f2:7c:95:b0:95:
                    82:7d:49:5c:38:cd:77:25:ef:bd:80:75:53:94:3c:
                    3d:ca:63:5b:9f:15:b5:d3:1d:13:2f:19:d1:3c:db:
                    76:3a:cc:b8:7d:c9:e5:c2:d7:da:40:6f:d8:21:dc:
                    73:1b:42:2d:53:9c:fe:1a:fc:7d:ab:7a:36:3f:98:
                    de:84:7c:05:67:ce:6a:14:38:87:a9:f1:8c:b5:68:
                    cb:68:7f:71:20:2b:f5:a0:63:f5:56:2f:a3:26:d2:
                    b7:6f:b1:5a:17:d7:38:99:08:fe:93:58:6f:fe:c3:
                    13:49:08:16:0b:a7:4d:67:00:52:31:67:23:4e:98:
                    ed:51:45:1d:b9:04:d9:0b:ec:d8:28:b3:4b:bd:ed:
                    36:79
                Exponent: 65537 (0x10001)
        X509v3 extensions:
            X509v3 Subject Key Identifier: 
                27:8E:67:11:74:C3:26:1D:3F:ED:33:63:B3:A4:D8:1D:30:E5:E8:D5
            X509v3 Authority Key Identifier: 
                keyid:27:8E:67:11:74:C3:26:1D:3F:ED:33:63:B3:A4:D8:1D:30:E5:E8:D5
                DirName:/C=US/ST=Montana/L=Bozeman/O=Sawtooth/OU=Consulting/CN=www.wolfssl.com/emailAddress=info@wolfssl.com
                serial:DC:04:23:A3:29:1F:DB:5E

            X509v3 Basic Constraints: 
                CA:TRUE
    Signature Algorithm: sha256WithRSAEncryption
         24:c2:6c:03:e3:3e:c8:46:94:65:84:25:b9:ba:25:41:83:fb:
         c6:b1:70:9d:8e:43:b6:f3:9d:e1:9d:a8:05:94:71:5d:77:15:
         89:51:fb:ed:c1:9b:8f:01:c2:b4:75:b3:95:28:73:b5:fb:10:
         51:68:8a:0f:d2:d4:de:a0:36:fb:ad:5d:89:f0:39:82:0d:5b:
         58:78:4e:68:7b:c9:fb:77:da:db:1b:43:94:8b:55:18:af:b6:
         d9:8e:ed:fe:00:3e:8d:c7:de:5a:75:35:da:8e:2a:98:e9:1e:
         2a:a4:3b:c4:02:de:86:c6:5a:56:57:23:d5:ea:80:11:47:1a:
         a9:21:9d:6d:e6:20:66:e6:cd:44:5a:be:57:20:c7:dc:82:a1:
         c7:b4:b8:4d:31:99:dd:1f:79:25:8b:f8:2f:29:21:9f:40:c2:
         d3:ac:4e:f3:30:4c:42:32:61:3e:9e:63:b2:6f:76:40:76:08:
         a8:ca:b9:10:96:b3:4e:d3:a6:67:5d:be:ff:fd:7b:8d:13:8d:
         44:77:75:ae:16:a6:9d:fb:01:ef:dd:b8:45:1c:2f:49:78:da:
         d5:2a:19:d4:af:53:58:22:d4:16:be:a7:18:b0:4a:7a:ae:f6:
         d3:6e:bb:e3:75:82:f5:cf:9d:f1:ae:69:db:f0:7d:61:bf:6c:
         a3:09:6a:0b
-----BEGIN CERTIFICATE-----
MIIEqjCCA5KgAwIBAgIJANwEI6MpH9teMA0GCSqGSIb3DQEBCwUAMIGUMQswCQYD
VQQGEwJVUzEQMA4GA1UECAwHTW9udGFuYTEQMA4GA1UEBwwHQm96ZW1hbjERMA8G
A1UECgwIU2F3dG9vdGgxEzARBgNVBAsMCkNvbnN1bHRpbmcxGDAWBgNVBAMMD3d3
dy53b2xmc3NsLmNvbTEfMB0GCSqGSIb3DQEJARYQaW5mb0B3b2xmc3NsLmNvbTAe
Fw0yMzAxMjYyMzM4MDJaFw0yNTEwMjIyMzM4MDJaMIGUMQswCQYDVQQGEwJVUzEQ
MA4GA1UECAwHTW9udGFuYTEQMA4GA1UEBwwHQm96ZW1hbjERMA8GA1UECgwIU2F3
dG9vdGgxEzARBgNVBAsMCkNvbnN1bHRpbmcxGDAWBgNVBAMMD3d3dy53b2xmc3Ns
LmNvbTEfMB0GCSqGSIb3DQEJARYQaW5mb0B3b2xmc3NsLmNvbTCCASIwDQYJKoZI
hvcNAQEBBQADggEPADCCAQoCggEBAL8Myi0Ush6EQlvNOB9K8k11EPG2NZ/fyn0D
mNOs3gNm7irx2LB9bgdUCxCYIU2AyxIg58xP3kV9yXJ3MurKkLtpUhADL6jzlcXx
i2JWG+9nb6QQQZWtCpvjpcCw0nB2UDBbqOgILHztp6J6jTgpHKzH7fJ8lbCVgn1J
XDjNdyXvvYB1U5Q8PcpjW58VtdMdEy8Z0TzbdjrMuH3J5cLX2kBv2CHccxtCLVOc
/hr8fat6Nj+Y3oR8BWfOahQ4h6nxjLVoy2h/cSAr9aBj9VYvoybSt2+xWhfXOJkI
/pNYb/7DE0kIFgunTWcAUjFnI06Y7VFFHbkE2Qvs2CizS73tNnkCAwEAAaOB/DCB
+TAdBgNVHQ4EFgQUJ45nEXTDJh0/7TNjs6TYHTDl6NUwgckGA1UdIwSBwTCBvoAU
J45nEXTDJh0/7TNjs6TYHTDl6NWhgZqkgZcwgZQxCzAJBgNVBAYTAlVTMRAwDgYD
VQQIDAdNb250YW5hMRAwDgYDVQQHDAdCb3plbWFuMREwDwYDVQQKDAhTYXd0b290
aDETMBEGA1UECwwKQ29uc3VsdGluZzEYMBYGA1UEAwwPd3d3LndvbGZzc2wuY29t
MR8wHQYJKoZIhvcNAQkBFhBpbmZvQHdvbGZzc2wuY29tggkA3AQjoykf214wDAYD
VR0TBAUwAwEB/zANBgkqhkiG9w0BAQsFAAOCAQEAJMJsA+M+yEaUZYQlubolQYP7
xrFwnY5DtvOd4Z2oBZRxXXcViVH77cGbjwHCtHWzlShztfsQUWiKD9LU3qA2+61d
ifA5gg1bWHhOaHvJ+3fa2xtDlItVGK+22Y7t/gA+jcfeWnU12o4qmOkeKqQ7xALe
hsZaVlcj1eqAEUcaqSGdbeYgZubNRFq+VyDH3IKhx7S4TTGZ3R95JYv4Lykhn0DC
06xO8zBMQjJhPp5jsm92QHYIqMq5EJazTtOmZ12+//17jRONRHd1rhamnfsB7924
RRwvSXja1SoZ1K9TWCLUFr6nGLBKeq72026743WC9c+d8a5p2/B9Yb9sowlqCw==
-----END CERTIFICATE-----
