Certificate:
    Data:
        Version: 3 (0x2)
        Serial Number: 103 (0x67)
    Signature Algorithm: sha1WithRSAEncryption
        Issuer: C=US, ST=Washington, L=Seattle, O=wolfSSL Inc., OU=Engineering, CN=Server 1 CA/emailAddress=info@wolfssl.com
        Validity
            Not Before: Jul  4 04:39:23 2021 GMT
            Not After : Mar 30 04:39:23 2024 GMT
        Subject: C=US, ST=Washington, L=Seattle, O=wolfSSL Inc., OU=Engineering, CN=Server 1-0 CA/emailAddress=info@wolfssl.com
        Subject Public Key Info:
            Public Key Algorithm: rsaEncryption
                Public-Key: (2048 bit)
                Modulus:
                    00:c0:95:08:e1:57:41:f2:71:6d:b7:d2:45:41:27:
                    01:65:c6:45:ae:f2:bc:24:30:b8:95:ce:2f:4e:d6:
                    f6:1c:88:bc:7c:9f:fb:a8:67:7f:fe:5c:9c:51:75:
                    f7:8a:ca:07:e7:35:2f:8f:e1:bd:7b:c0:2f:7c:ab:
                    64:a8:17:fc:ca:5d:7b:ba:e0:21:e5:72:2e:6f:2e:
                    86:d8:95:73:da:ac:1b:53:b9:5f:3f:d7:19:0d:25:
                    4f:e1:63:63:51:8b:0b:64:3f:ad:43:b8:a5:1c:5c:
                    34:b3:ae:00:a0:63:c5:f6:7f:0b:59:68:78:73:a6:
                    8c:18:a9:02:6d:af:c3:19:01:2e:b8:10:e3:c6:cc:
                    40:b4:69:a3:46:33:69:87:6e:c4:bb:17:a6:f3:e8:
                    dd:ad:73:bc:7b:2f:21:b5:fd:66:51:0c:bd:54:b3:
                    e1:6d:5f:1c:bc:23:73:d1:09:03:89:14:d2:10:b9:
                    64:c3:2a:d0:a1:96:4a:bc:e1:d4:1a:5b:c7:a0:c0:
                    c1:63:78:0f:44:37:30:32:96:80:32:23:95:a1:77:
                    ba:13:d2:97:73:e2:5d:25:c9:6a:0d:c3:39:60:a4:
                    b4:b0:69:42:42:09:e9:d8:08:bc:33:20:b3:58:22:
                    a7:aa:eb:c4:e1:e6:61:83:c5:d2:96:df:d9:d0:4f:
                    ad:d7
                Exponent: 65537 (0x10001)
        X509v3 extensions:
            X509v3 Subject Key Identifier: 
                B3:11:32:C9:92:98:84:E2:C9:F8:D0:3B:6E:03:42:CA:1F:0E:8E:3C
            X509v3 Authority Key Identifier: 
                keyid:B3:11:32:C9:92:98:84:E2:C9:F8:D0:3B:6E:03:42:CA:1F:0E:8E:3C
                DirName:/C=US/ST=Montana/L=Bozeman/O=Sawtooth/OU=Consulting/CN=www.wolfssl.com/emailAddress=info@wolfssl.com
                serial:66

            X509v3 Basic Constraints: 
                CA:TRUE, pathlen:0
            X509v3 Key Usage: 
                Certificate Sign, CRL Sign
    Signature Algorithm: sha1WithRSAEncryption
         58:57:d6:3b:b3:41:f4:45:4b:36:15:34:7c:c3:d0:dc:2c:bd:
         9c:e8:4c:9b:c2:5c:dc:17:71:07:58:7f:ab:71:c2:82:a3:f1:
         2a:6f:cd:fe:46:fd:6f:f4:1e:21:83:ce:76:f6:e9:23:bb:85:
         7c:2c:82:45:23:da:61:ee:3b:22:17:0d:14:7a:fd:01:19:16:
         c7:6b:33:58:0d:55:cf:be:f1:a3:ba:61:08:73:99:7b:31:d5:
         fc:75:dc:6f:dc:dc:f2:b9:0c:36:1b:00:e9:33:43:55:49:d6:
         81:99:30:0c:3c:4f:1d:ac:ea:cb:c1:a8:74:e4:c4:ef:9e:5d:
         45:8e:0c:3e:0e:6e:5e:c0:d8:57:a2:aa:7d:4e:25:ca:30:35:
         e3:b2:94:f6:ef:1e:6f:e9:08:49:ab:6c:8d:6b:aa:06:6b:69:
         75:1d:e2:8f:17:a3:dd:93:d3:87:95:8c:3e:3f:a6:49:e1:3f:
         8d:69:a1:06:5e:85:11:38:89:2c:e8:e8:fe:6d:94:f0:0c:51:
         aa:4e:c5:28:e6:2e:51:bb:83:86:b3:f7:eb:cc:37:32:4a:6d:
         f2:70:ed:f0:c2:d5:b7:5a:90:14:aa:99:18:01:2d:68:35:e6:
         b0:38:27:0f:cd:22:cf:3f:be:ea:bb:ff:79:19:58:b7:44:cf:
         b7:9a:86:ef
-----BEGIN CERTIFICATE-----
MIIEtjCCA56gAwIBAgIBZzANBgkqhkiG9w0BAQUFADCBmDELMAkGA1UEBhMCVVMx
EzARBgNVBAgMCldhc2hpbmd0b24xEDAOBgNVBAcMB1NlYXR0bGUxFTATBgNVBAoM
DHdvbGZTU0wgSW5jLjEUMBIGA1UECwwLRW5naW5lZXJpbmcxFDASBgNVBAMMC1Nl
cnZlciAxIENBMR8wHQYJKoZIhvcNAQkBFhBpbmZvQHdvbGZzc2wuY29tMB4XDTIx
MDcwNDA0MzkyM1oXDTI0MDMzMDA0MzkyM1owgZoxCzAJBgNVBAYTAlVTMRMwEQYD
VQQIDApXYXNoaW5ndG9uMRAwDgYDVQQHDAdTZWF0dGxlMRUwEwYDVQQKDAx3b2xm
U1NMIEluYy4xFDASBgNVBAsMC0VuZ2luZWVyaW5nMRYwFAYDVQQDDA1TZXJ2ZXIg
MS0wIENBMR8wHQYJKoZIhvcNAQkBFhBpbmZvQHdvbGZzc2wuY29tMIIBIjANBgkq
hkiG9w0BAQEFAAOCAQ8AMIIBCgKCAQEAwJUI4VdB8nFtt9JFQScBZcZFrvK8JDC4
lc4vTtb2HIi8fJ/7qGd//lycUXX3isoH5zUvj+G9e8AvfKtkqBf8yl17uuAh5XIu
by6G2JVz2qwbU7lfP9cZDSVP4WNjUYsLZD+tQ7ilHFw0s64AoGPF9n8LWWh4c6aM
GKkCba/DGQEuuBDjxsxAtGmjRjNph27Euxem8+jdrXO8ey8htf1mUQy9VLPhbV8c
vCNz0QkDiRTSELlkwyrQoZZKvOHUGlvHoMDBY3gPRDcwMpaAMiOVoXe6E9KXc+Jd
JclqDcM5YKS0sGlCQgnp2Ai8MyCzWCKnquvE4eZhg8XSlt/Z0E+t1wIDAQABo4IB
BTCCAQEwHQYDVR0OBBYEFLMRMsmSmITiyfjQO24DQsofDo48MIHBBgNVHSMEgbkw
gbaAFLMRMsmSmITiyfjQO24DQsofDo48oYGapIGXMIGUMQswCQYDVQQGEwJVUzEQ
MA4GA1UECAwHTW9udGFuYTEQMA4GA1UEBwwHQm96ZW1hbjERMA8GA1UECgwIU2F3
dG9vdGgxEzARBgNVBAsMCkNvbnN1bHRpbmcxGDAWBgNVBAMMD3d3dy53b2xmc3Ns
LmNvbTEfMB0GCSqGSIb3DQEJARYQaW5mb0B3b2xmc3NsLmNvbYIBZjAPBgNVHRME
CDAGAQH/AgEAMAsGA1UdDwQEAwIBBjANBgkqhkiG9w0BAQUFAAOCAQEAWFfWO7NB
9EVLNhU0fMPQ3Cy9nOhMm8Jc3BdxB1h/q3HCgqPxKm/N/kb9b/QeIYPOdvbpI7uF
fCyCRSPaYe47IhcNFHr9ARkWx2szWA1Vz77xo7phCHOZezHV/HXcb9zc8rkMNhsA
6TNDVUnWgZkwDDxPHazqy8GodOTE755dRY4MPg5uXsDYV6KqfU4lyjA147KU9u8e
b+kISatsjWuqBmtpdR3ijxej3ZPTh5WMPj+mSeE/jWmhBl6FETiJLOjo/m2U8AxR
qk7FKOYuUbuDhrP368w3Mkpt8nDt8MLVt1qQFKqZGAEtaDXmsDgnD80izz++6rv/
eRlYt0TPt5qG7w==
-----END CERTIFICATE-----
