Certificate:
    Data:
        Version: 3 (0x2)
        Serial Number: 104 (0x68)
    Signature Algorithm: sha1WithRSAEncryption
        Issuer: C=US, ST=Washington, L=Seattle, O=wolfSSL Inc., OU=Engineering, CN=Server 1-0 CA/emailAddress=info@wolfssl.com
        Validity
            Not Before: Jul  4 04:39:23 2021 GMT
            Not After : Mar 30 04:39:23 2024 GMT
        Subject: C=US, ST=Washington, L=Seattle, O=wolfSSL Inc., OU=Engineering, CN=Server 1-0/emailAddress=info@wolfssl.com
        Subject Public Key Info:
            Public Key Algorithm: rsaEncryption
                Public-Key: (2048 bit)
                Modulus:
                    00:c0:95:08:e1:57:41:f2:71:6d:b7:d2:45:41:27:
                    01:65:c6:45:ae:f2:bc:24:30:b8:95:ce:2f:4e:d6:
                    f6:1c:88:bc:7c:9f:fb:a8:67:7f:fe:5c:9c:51:75:
                    f7:8a:ca:07:e7:35:2f:8f:e1:bd:7b:c0:2f:7c:ab:
                    64:a8:17:fc:ca:5d:7b:ba:e0:21:e5:72:2e:6f:2e:
                    86:d8:95:73:da:ac:1b:53:b9:5f:3f:d7:19:0d:25:
                    4f:e1:63:63:51:8b:0b:64:3f:ad:43:b8:a5:1c:5c:
                    34:b3:ae:00:a0:63:c5:f6:7f:0b:59:68:78:73:a6:
                    8c:18:a9:02:6d:af:c3:19:01:2e:b8:10:e3:c6:cc:
                    40:b4:69:a3:46:33:69:87:6e:c4:bb:17:a6:f3:e8:
                    dd:ad:73:bc:7b:2f:21:b5:fd:66:51:0c:bd:54:b3:
                    e1:6d:5f:1c:bc:23:73:d1:09:03:89:14:d2:10:b9:
                    64:c3:2a:d0:a1:96:4a:bc:e1:d4:1a:5b:c7:a0:c0:
                    c1:63:78:0f:44:37:30:32:96:80:32:23:95:a1:77:
                    ba:13:d2:97:73:e2:5d:25:c9:6a:0d:c3:39:60:a4:
                    b4:b0:69:42:42:09:e9:d8:08:bc:33:20:b3:58:22:
                    a7:aa:eb:c4:e1:e6:61:83:c5:d2:96:df:d9:d0:4f:
                    ad:d7
                Exponent: 65537 (0x10001)
        X509v3 extensions:
            X509v3 Subject Key Identifier: 
                B3:11:32:C9:92:98:84:E2:C9:F8:D0:3B:6E:03:42:CA:1F:0E:8E:3C
            X509v3 Authority Key Identifier: 
                keyid:B3:11:32:C9:92:98:84:E2:C9:F8:D0:3B:6E:03:42:CA:1F:0E:8E:3C
                DirName:/C=US/ST=Washington/L=Seattle/O=wolfSSL Inc./OU=Engineering/CN=Server 1 CA/emailAddress=info@wolfssl.com
                serial:67

            X509v3 Basic Constraints: 
                CA:FALSE
    Signature Algorithm: sha1WithRSAEncryption
         92:0c:6e:75:fb:ed:1e:cc:d4:5e:99:91:53:6e:6c:8d:dc:d9:
         49:e8:d0:33:a2:90:04:7c:30:58:d0:a8:17:1d:95:28:f4:84:
         cd:04:57:92:3f:1d:69:f0:38:eb:05:2f:c1:17:c6:84:b5:27:
         fb:3b:0f:ab:20:3c:68:4f:e4:06:aa:4d:1d:37:0d:7a:18:4f:
         75:cd:b2:b1:ab:f3:ed:7c:04:8d:26:98:60:2b:07:f8:60:8d:
         ab:ec:bd:94:27:6e:d1:11:d8:5b:da:34:26:f4:46:34:4c:de:
         de:db:56:28:4c:95:10:5d:92:d7:56:ee:8f:58:bd:d3:89:80:
         27:dc:c6:f7:54:3f:e0:48:cd:fe:f0:8a:a7:63:b3:3f:48:e2:
         21:1d:49:ce:5a:f6:0a:c4:5e:eb:5e:2a:e6:79:af:4d:b6:e9:
         d3:96:ba:d2:e9:0a:5a:1f:8e:57:bf:3d:39:ad:0d:f4:db:65:
         90:42:b1:4e:15:02:88:9a:69:d5:4b:d2:26:43:b2:77:c7:dc:
         fd:7f:71:f5:66:67:72:e9:0d:11:8a:42:48:96:4f:e8:8c:a5:
         b4:ab:38:ce:2a:58:f8:eb:2f:22:94:0a:80:5a:88:90:52:8c:
         66:c9:72:3c:e4:d2:c2:9f:07:bb:6e:0f:5d:1e:bb:a0:ef:de:
         60:49:0d:17
-----BEGIN CERTIFICATE-----
MIIEpDCCA4ygAwIBAgIBaDANBgkqhkiG9w0BAQUFADCBmjELMAkGA1UEBhMCVVMx
EzARBgNVBAgMCldhc2hpbmd0b24xEDAOBgNVBAcMB1NlYXR0bGUxFTATBgNVBAoM
DHdvbGZTU0wgSW5jLjEUMBIGA1UECwwLRW5naW5lZXJpbmcxFjAUBgNVBAMMDVNl
cnZlciAxLTAgQ0ExHzAdBgkqhkiG9w0BCQEWEGluZm9Ad29sZnNzbC5jb20wHhcN
MjEwNzA0MDQzOTIzWhcNMjQwMzMwMDQzOTIzWjCBlzELMAkGA1UEBhMCVVMxEzAR
BgNVBAgMCldhc2hpbmd0b24xEDAOBgNVBAcMB1NlYXR0bGUxFTATBgNVBAoMDHdv
bGZTU0wgSW5jLjEUMBIGA1UECwwLRW5naW5lZXJpbmcxEzARBgNVBAMMClNlcnZl
ciAxLTAxHzAdBgkqhkiG9w0BCQEWEGluZm9Ad29sZnNzbC5jb20wggEiMA0GCSqG
SIb3DQEBAQUAA4IBDwAwggEKAoIBAQDAlQjhV0HycW230kVBJwFlxkWu8rwkMLiV
zi9O1vYciLx8n/uoZ3/+XJxRdfeKygfnNS+P4b17wC98q2SoF/zKXXu64CHlci5v
LobYlXParBtTuV8/1xkNJU/hY2NRiwtkP61DuKUcXDSzrgCgY8X2fwtZaHhzpowY
qQJtr8MZAS64EOPGzEC0aaNGM2mHbsS7F6bz6N2tc7x7LyG1/WZRDL1Us+FtXxy8
I3PRCQOJFNIQuWTDKtChlkq84dQaW8egwMFjeA9ENzAyloAyI5Whd7oT0pdz4l0l
yWoNwzlgpLSwaUJCCenYCLwzILNYIqeq68Th5mGDxdKW39nQT63XAgMBAAGjgfUw
gfIwHQYDVR0OBBYEFLMRMsmSmITiyfjQO24DQsofDo48MIHFBgNVHSMEgb0wgbqA
FLMRMsmSmITiyfjQO24DQsofDo48oYGepIGbMIGYMQswCQYDVQQGEwJVUzETMBEG
A1UECAwKV2FzaGluZ3RvbjEQMA4GA1UEBwwHU2VhdHRsZTEVMBMGA1UECgwMd29s
ZlNTTCBJbmMuMRQwEgYDVQQLDAtFbmdpbmVlcmluZzEUMBIGA1UEAwwLU2VydmVy
IDEgQ0ExHzAdBgkqhkiG9w0BCQEWEGluZm9Ad29sZnNzbC5jb22CAWcwCQYDVR0T
BAIwADANBgkqhkiG9w0BAQUFAAOCAQEAkgxudfvtHszUXpmRU25sjdzZSejQM6KQ
BHwwWNCoFx2VKPSEzQRXkj8dafA46wUvwRfGhLUn+zsPqyA8aE/kBqpNHTcNehhP
dc2ysavz7XwEjSaYYCsH+GCNq+y9lCdu0RHYW9o0JvRGNEze3ttWKEyVEF2S11bu
j1i904mAJ9zG91Q/4EjN/vCKp2OzP0jiIR1Jzlr2CsRe614q5nmvTbbp05a60ukK
Wh+OV789Oa0N9NtlkEKxThUCiJpp1UvSJkOyd8fc/X9x9WZncukNEYpCSJZP6Iyl
tKs4zipY+OsvIpQKgFqIkFKMZslyPOTSwp8Hu24PXR67oO/eYEkNFw==
-----END CERTIFICATE-----
Certificate:
    Data:
        Version: 3 (0x2)
        Serial Number: 103 (0x67)
    Signature Algorithm: sha1WithRSAEncryption
        Issuer: C=US, ST=Washington, L=Seattle, O=wolfSSL Inc., OU=Engineering, CN=Server 1 CA/emailAddress=info@wolfssl.com
        Validity
            Not Before: Jul  4 04:39:23 2021 GMT
            Not After : Mar 30 04:39:23 2024 GMT
        Subject: C=US, ST=Washington, L=Seattle, O=wolfSSL Inc., OU=Engineering, CN=Server 1-0 CA/emailAddress=info@wolfssl.com
        Subject Public Key Info:
            Public Key Algorithm: rsaEncryption
                Public-Key: (2048 bit)
                Modulus:
                    00:c0:95:08:e1:57:41:f2:71:6d:b7:d2:45:41:27:
                    01:65:c6:45:ae:f2:bc:24:30:b8:95:ce:2f:4e:d6:
                    f6:1c:88:bc:7c:9f:fb:a8:67:7f:fe:5c:9c:51:75:
                    f7:8a:ca:07:e7:35:2f:8f:e1:bd:7b:c0:2f:7c:ab:
                    64:a8:17:fc:ca:5d:7b:ba:e0:21:e5:72:2e:6f:2e:
                    86:d8:95:73:da:ac:1b:53:b9:5f:3f:d7:19:0d:25:
                    4f:e1:63:63:51:8b:0b:64:3f:ad:43:b8:a5:1c:5c:
                    34:b3:ae:00:a0:63:c5:f6:7f:0b:59:68:78:73:a6:
                    8c:18:a9:02:6d:af:c3:19:01:2e:b8:10:e3:c6:cc:
                    40:b4:69:a3:46:33:69:87:6e:c4:bb:17:a6:f3:e8:
                    dd:ad:73:bc:7b:2f:21:b5:fd:66:51:0c:bd:54:b3:
                    e1:6d:5f:1c:bc:23:73:d1:09:03:89:14:d2:10:b9:
                    64:c3:2a:d0:a1:96:4a:bc:e1:d4:1a:5b:c7:a0:c0:
                    c1:63:78:0f:44:37:30:32:96:80:32:23:95:a1:77:
                    ba:13:d2:97:73:e2:5d:25:c9:6a:0d:c3:39:60:a4:
                    b4:b0:69:42:42:09:e9:d8:08:bc:33:20:b3:58:22:
                    a7:aa:eb:c4:e1:e6:61:83:c5:d2:96:df:d9:d0:4f:
                    ad:d7
                Exponent: 65537 (0x10001)
        X509v3 extensions:
            X509v3 Subject Key Identifier: 
                B3:11:32:C9:92:98:84:E2:C9:F8:D0:3B:6E:03:42:CA:1F:0E:8E:3C
            X509v3 Authority Key Identifier: 
                keyid:B3:11:32:C9:92:98:84:E2:C9:F8:D0:3B:6E:03:42:CA:1F:0E:8E:3C
                DirName:/C=US/ST=Montana/L=Bozeman/O=Sawtooth/OU=Consulting/CN=www.wolfssl.com/emailAddress=info@wolfssl.com
                serial:66

            X509v3 Basic Constraints: 
                CA:TRUE, pathlen:0
            X509v3 Key Usage: 
                Certificate Sign, CRL Sign
    Signature Algorithm: sha1WithRSAEncryption
         58:57:d6:3b:b3:41:f4:45:4b:36:15:34:7c:c3:d0:dc:2c:bd:
         9c:e8:4c:9b:c2:5c:dc:17:71:07:58:7f:ab:71:c2:82:a3:f1:
         2a:6f:cd:fe:46:fd:6f:f4:1e:21:83:ce:76:f6:e9:23:bb:85:
         7c:2c:82:45:23:da:61:ee:3b:22:17:0d:14:7a:fd:01:19:16:
         c7:6b:33:58:0d:55:cf:be:f1:a3:ba:61:08:73:99:7b:31:d5:
         fc:75:dc:6f:dc:dc:f2:b9:0c:36:1b:00:e9:33:43:55:49:d6:
         81:99:30:0c:3c:4f:1d:ac:ea:cb:c1:a8:74:e4:c4:ef:9e:5d:
         45:8e:0c:3e:0e:6e:5e:c0:d8:57:a2:aa:7d:4e:25:ca:30:35:
         e3:b2:94:f6:ef:1e:6f:e9:08:49:ab:6c:8d:6b:aa:06:6b:69:
         75:1d:e2:8f:17:a3:dd:93:d3:87:95:8c:3e:3f:a6:49:e1:3f:
         8d:69:a1:06:5e:85:11:38:89:2c:e8:e8:fe:6d:94:f0:0c:51:
         aa:4e:c5:28:e6:2e:51:bb:83:86:b3:f7:eb:cc:37:32:4a:6d:
         f2:70:ed:f0:c2:d5:b7:5a:90:14:aa:99:18:01:2d:68:35:e6:
         b0:38:27:0f:cd:22:cf:3f:be:ea:bb:ff:79:19:58:b7:44:cf:
         b7:9a:86:ef
-----BEGIN CERTIFICATE-----
MIIEtjCCA56gAwIBAgIBZzANBgkqhkiG9w0BAQUFADCBmDELMAkGA1UEBhMCVVMx
EzARBgNVBAgMCldhc2hpbmd0b24xEDAOBgNVBAcMB1NlYXR0bGUxFTATBgNVBAoM
DHdvbGZTU0wgSW5jLjEUMBIGA1UECwwLRW5naW5lZXJpbmcxFDASBgNVBAMMC1Nl
cnZlciAxIENBMR8wHQYJKoZIhvcNAQkBFhBpbmZvQHdvbGZzc2wuY29tMB4XDTIx
MDcwNDA0MzkyM1oXDTI0MDMzMDA0MzkyM1owgZoxCzAJBgNVBAYTAlVTMRMwEQYD
VQQIDApXYXNoaW5ndG9uMRAwDgYDVQQHDAdTZWF0dGxlMRUwEwYDVQQKDAx3b2xm
U1NMIEluYy4xFDASBgNVBAsMC0VuZ2luZWVyaW5nMRYwFAYDVQQDDA1TZXJ2ZXIg
MS0wIENBMR8wHQYJKoZIhvcNAQkBFhBpbmZvQHdvbGZzc2wuY29tMIIBIjANBgkq
hkiG9w0BAQEFAAOCAQ8AMIIBCgKCAQEAwJUI4VdB8nFtt9JFQScBZcZFrvK8JDC4
lc4vTtb2HIi8fJ/7qGd//lycUXX3isoH5zUvj+G9e8AvfKtkqBf8yl17uuAh5XIu
by6G2JVz2qwbU7lfP9cZDSVP4WNjUYsLZD+tQ7ilHFw0s64AoGPF9n8LWWh4c6aM
GKkCba/DGQEuuBDjxsxAtGmjRjNph27Euxem8+jdrXO8ey8htf1mUQy9VLPhbV8c
vCNz0QkDiRTSELlkwyrQoZZKvOHUGlvHoMDBY3gPRDcwMpaAMiOVoXe6E9KXc+Jd
JclqDcM5YKS0sGlCQgnp2Ai8MyCzWCKnquvE4eZhg8XSlt/Z0E+t1wIDAQABo4IB
BTCCAQEwHQYDVR0OBBYEFLMRMsmSmITiyfjQO24DQsofDo48MIHBBgNVHSMEgbkw
gbaAFLMRMsmSmITiyfjQO24DQsofDo48oYGapIGXMIGUMQswCQYDVQQGEwJVUzEQ
MA4GA1UECAwHTW9udGFuYTEQMA4GA1UEBwwHQm96ZW1hbjERMA8GA1UECgwIU2F3
dG9vdGgxEzARBgNVBAsMCkNvbnN1bHRpbmcxGDAWBgNVBAMMD3d3dy53b2xmc3Ns
LmNvbTEfMB0GCSqGSIb3DQEJARYQaW5mb0B3b2xmc3NsLmNvbYIBZjAPBgNVHRME
CDAGAQH/AgEAMAsGA1UdDwQEAwIBBjANBgkqhkiG9w0BAQUFAAOCAQEAWFfWO7NB
9EVLNhU0fMPQ3Cy9nOhMm8Jc3BdxB1h/q3HCgqPxKm/N/kb9b/QeIYPOdvbpI7uF
fCyCRSPaYe47IhcNFHr9ARkWx2szWA1Vz77xo7phCHOZezHV/HXcb9zc8rkMNhsA
6TNDVUnWgZkwDDxPHazqy8GodOTE755dRY4MPg5uXsDYV6KqfU4lyjA147KU9u8e
b+kISatsjWuqBmtpdR3ijxej3ZPTh5WMPj+mSeE/jWmhBl6FETiJLOjo/m2U8AxR
qk7FKOYuUbuDhrP368w3Mkpt8nDt8MLVt1qQFKqZGAEtaDXmsDgnD80izz++6rv/
eRlYt0TPt5qG7w==
-----END CERTIFICATE-----
Certificate:
    Data:
        Version: 3 (0x2)
        Serial Number: 102 (0x66)
    Signature Algorithm: sha1WithRSAEncryption
        Issuer: C=US, ST=Montana, L=Bozeman, O=Sawtooth, OU=Consulting, CN=www.wolfssl.com/emailAddress=info@wolfssl.com
        Validity
            Not Before: Jul  4 04:39:22 2021 GMT
            Not After : Mar 30 04:39:22 2024 GMT
        Subject: C=US, ST=Washington, L=Seattle, O=wolfSSL Inc., OU=Engineering, CN=Server 1 CA/emailAddress=info@wolfssl.com
        Subject Public Key Info:
            Public Key Algorithm: rsaEncryption
                Public-Key: (2048 bit)
                Modulus:
                    00:c0:95:08:e1:57:41:f2:71:6d:b7:d2:45:41:27:
                    01:65:c6:45:ae:f2:bc:24:30:b8:95:ce:2f:4e:d6:
                    f6:1c:88:bc:7c:9f:fb:a8:67:7f:fe:5c:9c:51:75:
                    f7:8a:ca:07:e7:35:2f:8f:e1:bd:7b:c0:2f:7c:ab:
                    64:a8:17:fc:ca:5d:7b:ba:e0:21:e5:72:2e:6f:2e:
                    86:d8:95:73:da:ac:1b:53:b9:5f:3f:d7:19:0d:25:
                    4f:e1:63:63:51:8b:0b:64:3f:ad:43:b8:a5:1c:5c:
                    34:b3:ae:00:a0:63:c5:f6:7f:0b:59:68:78:73:a6:
                    8c:18:a9:02:6d:af:c3:19:01:2e:b8:10:e3:c6:cc:
                    40:b4:69:a3:46:33:69:87:6e:c4:bb:17:a6:f3:e8:
                    dd:ad:73:bc:7b:2f:21:b5:fd:66:51:0c:bd:54:b3:
                    e1:6d:5f:1c:bc:23:73:d1:09:03:89:14:d2:10:b9:
                    64:c3:2a:d0:a1:96:4a:bc:e1:d4:1a:5b:c7:a0:c0:
                    c1:63:78:0f:44:37:30:32:96:80:32:23:95:a1:77:
                    ba:13:d2:97:73:e2:5d:25:c9:6a:0d:c3:39:60:a4:
                    b4:b0:69:42:42:09:e9:d8:08:bc:33:20:b3:58:22:
                    a7:aa:eb:c4:e1:e6:61:83:c5:d2:96:df:d9:d0:4f:
                    ad:d7
                Exponent: 65537 (0x10001)
        X509v3 extensions:
            X509v3 Subject Key Identifier: 
                B3:11:32:C9:92:98:84:E2:C9:F8:D0:3B:6E:03:42:CA:1F:0E:8E:3C
            X509v3 Authority Key Identifier: 
                keyid:27:8E:67:11:74:C3:26:1D:3F:ED:33:63:B3:A4:D8:1D:30:E5:E8:D5
                DirName:/C=US/ST=Montana/L=Bozeman/O=Sawtooth/OU=Consulting/CN=www.wolfssl.com/emailAddress=info@wolfssl.com
                serial:81:32:7F:B3:64:03:E0:E2

            X509v3 Basic Constraints: 
                CA:TRUE, pathlen:1
            X509v3 Key Usage: 
                Certificate Sign, CRL Sign
    Signature Algorithm: sha1WithRSAEncryption
         9f:b5:15:f9:81:23:3a:f1:42:75:fd:ba:53:f8:54:27:4e:20:
         13:e1:55:ea:ff:4f:fc:2f:80:3f:66:70:07:e9:a7:72:c5:46:
         62:c8:a6:8f:86:71:be:bc:1c:fe:e5:68:e9:95:f8:db:9d:c3:
         7b:e3:67:f1:a6:25:9e:62:3d:01:8a:08:21:15:f9:35:f4:67:
         ee:86:63:23:40:3a:c1:8a:d4:98:2f:61:b2:23:38:75:5f:99:
         ad:24:9f:41:1b:3b:58:53:7d:52:c4:4d:6a:14:a3:c5:65:29:
         9e:5a:a2:3e:0e:64:f2:11:b4:b7:fc:74:ca:12:48:4c:1c:99:
         e6:0f:fc:c1:ce:ae:e7:0f:aa:39:8e:64:ba:d0:ef:6a:73:53:
         a6:39:cd:2e:b9:48:e9:b8:0a:d0:e9:cc:f5:a6:c2:4b:0d:3e:
         fb:a6:e5:c6:b0:9b:5e:50:fb:2c:99:3c:a4:ed:a6:74:24:7a:
         a1:7a:63:55:c2:27:8a:06:50:c1:d4:ac:f2:f0:0b:db:2a:8f:
         bf:94:e6:08:20:7f:67:b1:70:5c:7f:b6:a6:b0:d4:fa:78:13:
         83:c8:57:6a:ec:a3:2e:32:f4:c4:1b:03:0c:73:33:30:7a:8f:
         93:38:49:d4:d1:2f:a3:14:8d:2c:a0:26:fb:b5:16:33:d3:0b:
         94:10:e4:e7
-----BEGIN CERTIFICATE-----
MIIEuDCCA6CgAwIBAgIBZjANBgkqhkiG9w0BAQUFADCBlDELMAkGA1UEBhMCVVMx
EDAOBgNVBAgMB01vbnRhbmExEDAOBgNVBAcMB0JvemVtYW4xETAPBgNVBAoMCFNh
d3Rvb3RoMRMwEQYDVQQLDApDb25zdWx0aW5nMRgwFgYDVQQDDA93d3cud29sZnNz
bC5jb20xHzAdBgkqhkiG9w0BCQEWEGluZm9Ad29sZnNzbC5jb20wHhcNMjEwNzA0
MDQzOTIyWhcNMjQwMzMwMDQzOTIyWjCBmDELMAkGA1UEBhMCVVMxEzARBgNVBAgM
Cldhc2hpbmd0b24xEDAOBgNVBAcMB1NlYXR0bGUxFTATBgNVBAoMDHdvbGZTU0wg
SW5jLjEUMBIGA1UECwwLRW5naW5lZXJpbmcxFDASBgNVBAMMC1NlcnZlciAxIENB
MR8wHQYJKoZIhvcNAQkBFhBpbmZvQHdvbGZzc2wuY29tMIIBIjANBgkqhkiG9w0B
AQEFAAOCAQ8AMIIBCgKCAQEAwJUI4VdB8nFtt9JFQScBZcZFrvK8JDC4lc4vTtb2
HIi8fJ/7qGd//lycUXX3isoH5zUvj+G9e8AvfKtkqBf8yl17uuAh5XIuby6G2JVz
2qwbU7lfP9cZDSVP4WNjUYsLZD+tQ7ilHFw0s64AoGPF9n8LWWh4c6aMGKkCba/D
GQEuuBDjxsxAtGmjRjNph27Euxem8+jdrXO8ey8htf1mUQy9VLPhbV8cvCNz0QkD
iRTSELlkwyrQoZZKvOHUGlvHoMDBY3gPRDcwMpaAMiOVoXe6E9KXc+JdJclqDcM5
YKS0sGlCQgnp2Ai8MyCzWCKnquvE4eZhg8XSlt/Z0E+t1wIDAQABo4IBDTCCAQkw
HQYDVR0OBBYEFLMRMsmSmITiyfjQO24DQsofDo48MIHJBgNVHSMEgcEwgb6AFCeO
ZxF0wyYdP+0zY7Ok2B0w5ejVoYGapIGXMIGUMQswCQYDVQQGEwJVUzEQMA4GA1UE
CAwHTW9udGFuYTEQMA4GA1UEBwwHQm96ZW1hbjERMA8GA1UECgwIU2F3dG9vdGgx
EzARBgNVBAsMCkNvbnN1bHRpbmcxGDAWBgNVBAMMD3d3dy53b2xmc3NsLmNvbTEf
MB0GCSqGSIb3DQEJARYQaW5mb0B3b2xmc3NsLmNvbYIJAIEyf7NkA+DiMA8GA1Ud
EwQIMAYBAf8CAQEwCwYDVR0PBAQDAgEGMA0GCSqGSIb3DQEBBQUAA4IBAQCftRX5
gSM68UJ1/bpT+FQnTiAT4VXq/0/8L4A/ZnAH6adyxUZiyKaPhnG+vBz+5Wjplfjb
ncN742fxpiWeYj0BigghFfk19GfuhmMjQDrBitSYL2GyIzh1X5mtJJ9BGztYU31S
xE1qFKPFZSmeWqI+DmTyEbS3/HTKEkhMHJnmD/zBzq7nD6o5jmS60O9qc1OmOc0u
uUjpuArQ6cz1psJLDT77puXGsJteUPssmTyk7aZ0JHqhemNVwieKBlDB1Kzy8Avb
Ko+/lOYIIH9nsXBcf7amsNT6eBODyFdq7KMuMvTEGwMMczMweo+TOEnU0S+jFI0s
oCb7tRYz0wuUEOTn
-----END CERTIFICATE-----
