Certificate:
    Data:
        Version: 3 (0x2)
        Serial Number: 101 (0x65)
    Signature Algorithm: sha1WithRSAEncryption
        Issuer: C=US, ST=Washington, L=Seattle, O=wolfSSL Inc., OU=Engineering, CN=Server 0 CA/emailAddress=info@wolfssl.com
        Validity
            Not Before: Jul  4 04:39:22 2021 GMT
            Not After : Mar 30 04:39:22 2024 GMT
        Subject: C=US, ST=Washington, L=Seattle, O=wolfSSL Inc., OU=Engineering, CN=Server 0/emailAddress=info@wolfssl.com
        Subject Public Key Info:
            Public Key Algorithm: rsaEncryption
                Public-Key: (2048 bit)
                Modulus:
                    00:c0:95:08:e1:57:41:f2:71:6d:b7:d2:45:41:27:
                    01:65:c6:45:ae:f2:bc:24:30:b8:95:ce:2f:4e:d6:
                    f6:1c:88:bc:7c:9f:fb:a8:67:7f:fe:5c:9c:51:75:
                    f7:8a:ca:07:e7:35:2f:8f:e1:bd:7b:c0:2f:7c:ab:
                    64:a8:17:fc:ca:5d:7b:ba:e0:21:e5:72:2e:6f:2e:
                    86:d8:95:73:da:ac:1b:53:b9:5f:3f:d7:19:0d:25:
                    4f:e1:63:63:51:8b:0b:64:3f:ad:43:b8:a5:1c:5c:
                    34:b3:ae:00:a0:63:c5:f6:7f:0b:59:68:78:73:a6:
                    8c:18:a9:02:6d:af:c3:19:01:2e:b8:10:e3:c6:cc:
                    40:b4:69:a3:46:33:69:87:6e:c4:bb:17:a6:f3:e8:
                    dd:ad:73:bc:7b:2f:21:b5:fd:66:51:0c:bd:54:b3:
                    e1:6d:5f:1c:bc:23:73:d1:09:03:89:14:d2:10:b9:
                    64:c3:2a:d0:a1:96:4a:bc:e1:d4:1a:5b:c7:a0:c0:
                    c1:63:78:0f:44:37:30:32:96:80:32:23:95:a1:77:
                    ba:13:d2:97:73:e2:5d:25:c9:6a:0d:c3:39:60:a4:
                    b4:b0:69:42:42:09:e9:d8:08:bc:33:20:b3:58:22:
                    a7:aa:eb:c4:e1:e6:61:83:c5:d2:96:df:d9:d0:4f:
                    ad:d7
                Exponent: 65537 (0x10001)
        X509v3 extensions:
            X509v3 Subject Key Identifier: 
                B3:11:32:C9:92:98:84:E2:C9:F8:D0:3B:6E:03:42:CA:1F:0E:8E:3C
            X509v3 Authority Key Identifier: 
                keyid:B3:11:32:C9:92:98:84:E2:C9:F8:D0:3B:6E:03:42:CA:1F:0E:8E:3C
                DirName:/C=US/ST=Montana/L=Bozeman/O=Sawtooth/OU=Consulting/CN=www.wolfssl.com/emailAddress=info@wolfssl.com
                serial:64

            X509v3 Basic Constraints: 
                CA:FALSE
    Signature Algorithm: sha1WithRSAEncryption
         99:7e:cf:2c:0a:c7:70:78:9e:7a:13:b0:c4:50:66:0f:c0:48:
         1d:0b:df:ea:94:dd:6a:e0:35:12:ba:8c:7b:77:92:65:61:46:
         d7:a0:3b:08:cb:9c:31:da:67:99:77:3a:bd:c2:ed:cc:78:30:
         a3:14:75:82:43:da:3f:85:67:96:f8:64:e4:c9:d3:f5:af:8a:
         1b:5b:dc:15:3d:db:11:3e:d7:15:0b:90:2d:3d:a6:d4:89:9c:
         14:35:a9:bd:78:fe:6f:40:c7:07:ed:a7:c1:dc:71:2f:4c:d1:
         9b:0b:f4:3e:4c:9c:44:05:64:d7:78:9a:c7:9e:66:a6:81:4b:
         33:02:34:38:6f:50:40:b3:46:d2:e7:4c:cd:ec:87:22:89:ca:
         5f:24:42:10:b4:60:2f:49:bf:e6:ba:54:e0:6c:e0:d8:4f:58:
         5e:f3:d2:9a:c4:12:a3:e3:83:25:ce:38:8c:ee:4d:17:cf:14:
         14:dd:42:d8:75:22:bd:56:9c:44:a3:b3:65:f3:5a:18:84:c9:
         bf:40:07:18:ab:88:73:f4:a8:41:9d:ca:84:62:1d:61:0e:7b:
         5d:03:27:36:92:48:cf:86:c3:6e:29:41:94:c0:77:aa:44:e5:
         27:74:b9:12:ca:96:69:30:09:95:7a:bb:ca:3c:a3:d4:31:c6:
         0d:25:48:3c
-----BEGIN CERTIFICATE-----
MIIEnDCCA4SgAwIBAgIBZTANBgkqhkiG9w0BAQUFADCBmDELMAkGA1UEBhMCVVMx
EzARBgNVBAgMCldhc2hpbmd0b24xEDAOBgNVBAcMB1NlYXR0bGUxFTATBgNVBAoM
DHdvbGZTU0wgSW5jLjEUMBIGA1UECwwLRW5naW5lZXJpbmcxFDASBgNVBAMMC1Nl
cnZlciAwIENBMR8wHQYJKoZIhvcNAQkBFhBpbmZvQHdvbGZzc2wuY29tMB4XDTIx
MDcwNDA0MzkyMloXDTI0MDMzMDA0MzkyMlowgZUxCzAJBgNVBAYTAlVTMRMwEQYD
VQQIDApXYXNoaW5ndG9uMRAwDgYDVQQHDAdTZWF0dGxlMRUwEwYDVQQKDAx3b2xm
U1NMIEluYy4xFDASBgNVBAsMC0VuZ2luZWVyaW5nMREwDwYDVQQDDAhTZXJ2ZXIg
MDEfMB0GCSqGSIb3DQEJARYQaW5mb0B3b2xmc3NsLmNvbTCCASIwDQYJKoZIhvcN
AQEBBQADggEPADCCAQoCggEBAMCVCOFXQfJxbbfSRUEnAWXGRa7yvCQwuJXOL07W
9hyIvHyf+6hnf/5cnFF194rKB+c1L4/hvXvAL3yrZKgX/Mpde7rgIeVyLm8uhtiV
c9qsG1O5Xz/XGQ0lT+FjY1GLC2Q/rUO4pRxcNLOuAKBjxfZ/C1loeHOmjBipAm2v
wxkBLrgQ48bMQLRpo0YzaYduxLsXpvPo3a1zvHsvIbX9ZlEMvVSz4W1fHLwjc9EJ
A4kU0hC5ZMMq0KGWSrzh1Bpbx6DAwWN4D0Q3MDKWgDIjlaF3uhPSl3PiXSXJag3D
OWCktLBpQkIJ6dgIvDMgs1gip6rrxOHmYYPF0pbf2dBPrdcCAwEAAaOB8TCB7jAd
BgNVHQ4EFgQUsxEyyZKYhOLJ+NA7bgNCyh8OjjwwgcEGA1UdIwSBuTCBtoAUsxEy
yZKYhOLJ+NA7bgNCyh8OjjyhgZqkgZcwgZQxCzAJBgNVBAYTAlVTMRAwDgYDVQQI
DAdNb250YW5hMRAwDgYDVQQHDAdCb3plbWFuMREwDwYDVQQKDAhTYXd0b290aDET
MBEGA1UECwwKQ29uc3VsdGluZzEYMBYGA1UEAwwPd3d3LndvbGZzc2wuY29tMR8w
HQYJKoZIhvcNAQkBFhBpbmZvQHdvbGZzc2wuY29tggFkMAkGA1UdEwQCMAAwDQYJ
KoZIhvcNAQEFBQADggEBAJl+zywKx3B4nnoTsMRQZg/ASB0L3+qU3WrgNRK6jHt3
kmVhRtegOwjLnDHaZ5l3Or3C7cx4MKMUdYJD2j+FZ5b4ZOTJ0/Wvihtb3BU92xE+
1xULkC09ptSJnBQ1qb14/m9Axwftp8HccS9M0ZsL9D5MnEQFZNd4mseeZqaBSzMC
NDhvUECzRtLnTM3shyKJyl8kQhC0YC9Jv+a6VOBs4NhPWF7z0prEEqPjgyXOOIzu
TRfPFBTdQth1Ir1WnESjs2XzWhiEyb9ABxiriHP0qEGdyoRiHWEOe10DJzaSSM+G
w24pQZTAd6pE5Sd0uRLKlmkwCZV6u8o8o9Qxxg0lSDw=
-----END CERTIFICATE-----
Certificate:
    Data:
        Version: 3 (0x2)
        Serial Number: 100 (0x64)
    Signature Algorithm: sha1WithRSAEncryption
        Issuer: C=US, ST=Montana, L=Bozeman, O=Sawtooth, OU=Consulting, CN=www.wolfssl.com/emailAddress=info@wolfssl.com
        Validity
            Not Before: Jul  4 04:39:22 2021 GMT
            Not After : Mar 30 04:39:22 2024 GMT
        Subject: C=US, ST=Washington, L=Seattle, O=wolfSSL Inc., OU=Engineering, CN=Server 0 CA/emailAddress=info@wolfssl.com
        Subject Public Key Info:
            Public Key Algorithm: rsaEncryption
                Public-Key: (2048 bit)
                Modulus:
                    00:c0:95:08:e1:57:41:f2:71:6d:b7:d2:45:41:27:
                    01:65:c6:45:ae:f2:bc:24:30:b8:95:ce:2f:4e:d6:
                    f6:1c:88:bc:7c:9f:fb:a8:67:7f:fe:5c:9c:51:75:
                    f7:8a:ca:07:e7:35:2f:8f:e1:bd:7b:c0:2f:7c:ab:
                    64:a8:17:fc:ca:5d:7b:ba:e0:21:e5:72:2e:6f:2e:
                    86:d8:95:73:da:ac:1b:53:b9:5f:3f:d7:19:0d:25:
                    4f:e1:63:63:51:8b:0b:64:3f:ad:43:b8:a5:1c:5c:
                    34:b3:ae:00:a0:63:c5:f6:7f:0b:59:68:78:73:a6:
                    8c:18:a9:02:6d:af:c3:19:01:2e:b8:10:e3:c6:cc:
                    40:b4:69:a3:46:33:69:87:6e:c4:bb:17:a6:f3:e8:
                    dd:ad:73:bc:7b:2f:21:b5:fd:66:51:0c:bd:54:b3:
                    e1:6d:5f:1c:bc:23:73:d1:09:03:89:14:d2:10:b9:
                    64:c3:2a:d0:a1:96:4a:bc:e1:d4:1a:5b:c7:a0:c0:
                    c1:63:78:0f:44:37:30:32:96:80:32:23:95:a1:77:
                    ba:13:d2:97:73:e2:5d:25:c9:6a:0d:c3:39:60:a4:
                    b4:b0:69:42:42:09:e9:d8:08:bc:33:20:b3:58:22:
                    a7:aa:eb:c4:e1:e6:61:83:c5:d2:96:df:d9:d0:4f:
                    ad:d7
                Exponent: 65537 (0x10001)
        X509v3 extensions:
            X509v3 Subject Key Identifier: 
                B3:11:32:C9:92:98:84:E2:C9:F8:D0:3B:6E:03:42:CA:1F:0E:8E:3C
            X509v3 Authority Key Identifier: 
                keyid:27:8E:67:11:74:C3:26:1D:3F:ED:33:63:B3:A4:D8:1D:30:E5:E8:D5
                DirName:/C=US/ST=Montana/L=Bozeman/O=Sawtooth/OU=Consulting/CN=www.wolfssl.com/emailAddress=info@wolfssl.com
                serial:81:32:7F:B3:64:03:E0:E2

            X509v3 Basic Constraints: 
                CA:TRUE, pathlen:0
            X509v3 Key Usage: 
                Certificate Sign, CRL Sign
    Signature Algorithm: sha1WithRSAEncryption
         bc:28:f9:01:e8:7e:4a:ce:d1:e1:ad:7f:20:8d:19:fe:a0:78:
         1c:24:e0:78:01:0b:47:a6:66:d4:0e:0e:32:e1:84:05:49:28:
         01:b5:e8:ad:a3:95:cc:ec:ba:8f:09:83:d6:21:ae:bb:81:36:
         e3:b6:e4:3a:c7:6d:92:6f:67:c1:73:b8:eb:e3:fe:4a:bc:86:
         04:4f:ba:08:3e:23:65:02:f3:1f:ac:1b:22:7e:a3:bc:e5:f6:
         79:9b:b9:c5:d4:1f:b9:a1:4b:3e:b8:a2:0a:10:f3:3d:df:95:
         ad:3f:0f:d2:ef:c1:f5:4d:b6:56:6f:32:a8:95:f8:50:74:3f:
         d9:16:2a:dc:a7:5b:4d:3e:93:c5:0b:9a:9e:6c:b8:b6:a7:43:
         c4:20:a0:cc:16:2f:73:28:a1:d0:fe:cd:32:85:f8:a1:bd:26:
         9a:e9:9d:0c:e3:26:46:f4:53:4c:5f:7e:da:41:3e:80:2d:d4:
         34:ef:e3:75:fc:62:e3:f5:66:3d:94:6f:a4:8c:a0:06:87:be:
         bb:ba:dc:d1:3c:f1:ab:1f:ad:7e:99:95:55:ae:bd:e5:98:61:
         e5:b7:da:ba:d7:2c:9f:6b:76:62:cd:7f:de:0b:4c:65:98:cf:
         c7:f0:1e:09:c9:01:ca:85:1c:83:9e:06:f4:cb:4e:3a:13:a2:
         6b:cf:e3:8f
-----BEGIN CERTIFICATE-----
MIIEuDCCA6CgAwIBAgIBZDANBgkqhkiG9w0BAQUFADCBlDELMAkGA1UEBhMCVVMx
EDAOBgNVBAgMB01vbnRhbmExEDAOBgNVBAcMB0JvemVtYW4xETAPBgNVBAoMCFNh
d3Rvb3RoMRMwEQYDVQQLDApDb25zdWx0aW5nMRgwFgYDVQQDDA93d3cud29sZnNz
bC5jb20xHzAdBgkqhkiG9w0BCQEWEGluZm9Ad29sZnNzbC5jb20wHhcNMjEwNzA0
MDQzOTIyWhcNMjQwMzMwMDQzOTIyWjCBmDELMAkGA1UEBhMCVVMxEzARBgNVBAgM
Cldhc2hpbmd0b24xEDAOBgNVBAcMB1NlYXR0bGUxFTATBgNVBAoMDHdvbGZTU0wg
SW5jLjEUMBIGA1UECwwLRW5naW5lZXJpbmcxFDASBgNVBAMMC1NlcnZlciAwIENB
MR8wHQYJKoZIhvcNAQkBFhBpbmZvQHdvbGZzc2wuY29tMIIBIjANBgkqhkiG9w0B
AQEFAAOCAQ8AMIIBCgKCAQEAwJUI4VdB8nFtt9JFQScBZcZFrvK8JDC4lc4vTtb2
HIi8fJ/7qGd//lycUXX3isoH5zUvj+G9e8AvfKtkqBf8yl17uuAh5XIuby6G2JVz
2qwbU7lfP9cZDSVP4WNjUYsLZD+tQ7ilHFw0s64AoGPF9n8LWWh4c6aMGKkCba/D
GQEuuBDjxsxAtGmjRjNph27Euxem8+jdrXO8ey8htf1mUQy9VLPhbV8cvCNz0QkD
iRTSELlkwyrQoZZKvOHUGlvHoMDBY3gPRDcwMpaAMiOVoXe6E9KXc+JdJclqDcM5
YKS0sGlCQgnp2Ai8MyCzWCKnquvE4eZhg8XSlt/Z0E+t1wIDAQABo4IBDTCCAQkw
HQYDVR0OBBYEFLMRMsmSmITiyfjQO24DQsofDo48MIHJBgNVHSMEgcEwgb6AFCeO
ZxF0wyYdP+0zY7Ok2B0w5ejVoYGapIGXMIGUMQswCQYDVQQGEwJVUzEQMA4GA1UE
CAwHTW9udGFuYTEQMA4GA1UEBwwHQm96ZW1hbjERMA8GA1UECgwIU2F3dG9vdGgx
EzARBgNVBAsMCkNvbnN1bHRpbmcxGDAWBgNVBAMMD3d3dy53b2xmc3NsLmNvbTEf
MB0GCSqGSIb3DQEJARYQaW5mb0B3b2xmc3NsLmNvbYIJAIEyf7NkA+DiMA8GA1Ud
EwQIMAYBAf8CAQAwCwYDVR0PBAQDAgEGMA0GCSqGSIb3DQEBBQUAA4IBAQC8KPkB
6H5KztHhrX8gjRn+oHgcJOB4AQtHpmbUDg4y4YQFSSgBteito5XM7LqPCYPWIa67
gTbjtuQ6x22Sb2fBc7jr4/5KvIYET7oIPiNlAvMfrBsifqO85fZ5m7nF1B+5oUs+
uKIKEPM935WtPw/S78H1TbZWbzKolfhQdD/ZFircp1tNPpPFC5qebLi2p0PEIKDM
Fi9zKKHQ/s0yhfihvSaa6Z0M4yZG9FNMX37aQT6ALdQ07+N1/GLj9WY9lG+kjKAG
h767utzRPPGrH61+mZVVrr3lmGHlt9q61yyfa3ZizX/eC0xlmM/H8B4JyQHKhRyD
ngb0y046E6Jrz+OP
-----END CERTIFICATE-----
