Certificate:
    Data:
        Version: 3 (0x2)
        Serial Number: 105 (0x69)
    Signature Algorithm: sha1WithRSAEncryption
        Issuer: C=US, ST=Washington, L=Seattle, O=wolfSSL Inc., OU=Engineering, CN=Server 1 CA/emailAddress=info@wolfssl.com
        Validity
            Not Before: Jul  4 04:39:22 2021 GMT
            Not After : Mar 30 04:39:22 2024 GMT
        Subject: C=US, ST=Washington, L=Seattle, O=wolfSSL Inc., OU=Engineering, CN=Server 1/emailAddress=info@wolfssl.com
        Subject Public Key Info:
            Public Key Algorithm: rsaEncryption
                Public-Key: (2048 bit)
                Modulus:
                    00:c0:95:08:e1:57:41:f2:71:6d:b7:d2:45:41:27:
                    01:65:c6:45:ae:f2:bc:24:30:b8:95:ce:2f:4e:d6:
                    f6:1c:88:bc:7c:9f:fb:a8:67:7f:fe:5c:9c:51:75:
                    f7:8a:ca:07:e7:35:2f:8f:e1:bd:7b:c0:2f:7c:ab:
                    64:a8:17:fc:ca:5d:7b:ba:e0:21:e5:72:2e:6f:2e:
                    86:d8:95:73:da:ac:1b:53:b9:5f:3f:d7:19:0d:25:
                    4f:e1:63:63:51:8b:0b:64:3f:ad:43:b8:a5:1c:5c:
                    34:b3:ae:00:a0:63:c5:f6:7f:0b:59:68:78:73:a6:
                    8c:18:a9:02:6d:af:c3:19:01:2e:b8:10:e3:c6:cc:
                    40:b4:69:a3:46:33:69:87:6e:c4:bb:17:a6:f3:e8:
                    dd:ad:73:bc:7b:2f:21:b5:fd:66:51:0c:bd:54:b3:
                    e1:6d:5f:1c:bc:23:73:d1:09:03:89:14:d2:10:b9:
                    64:c3:2a:d0:a1:96:4a:bc:e1:d4:1a:5b:c7:a0:c0:
                    c1:63:78:0f:44:37:30:32:96:80:32:23:95:a1:77:
                    ba:13:d2:97:73:e2:5d:25:c9:6a:0d:c3:39:60:a4:
                    b4:b0:69:42:42:09:e9:d8:08:bc:33:20:b3:58:22:
                    a7:aa:eb:c4:e1:e6:61:83:c5:d2:96:df:d9:d0:4f:
                    ad:d7
                Exponent: 65537 (0x10001)
        X509v3 extensions:
            X509v3 Subject Key Identifier: 
                B3:11:32:C9:92:98:84:E2:C9:F8:D0:3B:6E:03:42:CA:1F:0E:8E:3C
            X509v3 Authority Key Identifier: 
                keyid:B3:11:32:C9:92:98:84:E2:C9:F8:D0:3B:6E:03:42:CA:1F:0E:8E:3C
                DirName:/C=US/ST=Montana/L=Bozeman/O=Sawtooth/OU=Consulting/CN=www.wolfssl.com/emailAddress=info@wolfssl.com
                serial:66

            X509v3 Basic Constraints: 
                CA:FALSE
    Signature Algorithm: sha1WithRSAEncryption
         07:99:89:ff:34:08:1a:10:f1:ec:1f:74:4e:36:eb:ac:df:6e:
         8d:c4:60:a4:d8:3c:66:78:a4:4e:87:c6:ea:d9:bb:88:f2:4a:
         99:eb:89:c0:be:99:0d:d8:82:b9:27:98:5c:c9:79:99:5a:bd:
         90:3f:59:8b:2f:6f:fb:df:2f:ec:e8:24:ac:d0:b2:3f:a8:48:
         de:0e:bc:3f:21:30:df:83:de:d6:ff:5c:21:5d:13:ca:da:c9:
         d8:d5:b3:ae:a8:c2:c5:d9:95:2b:78:ad:20:30:53:75:50:6d:
         43:2c:ef:fb:75:61:32:da:48:86:44:d5:ff:5b:21:f1:55:a7:
         98:5f:70:25:f6:81:c1:69:91:81:98:eb:9d:3b:c5:9a:bc:3e:
         ac:c8:f3:af:f5:ad:fa:9a:6f:9f:46:9a:30:08:7e:7b:d5:85:
         13:d7:e1:36:b5:55:9a:74:f3:a5:2c:74:dd:4b:89:09:0a:21:
         b5:e1:dd:03:25:96:8d:b3:c4:83:9a:fb:79:e4:61:34:e9:47:
         a6:dc:fd:db:88:9f:4c:bb:62:c1:f3:2b:e5:6e:1c:f9:a1:f8:
         47:ef:05:cf:4f:f5:2a:db:b2:06:24:ac:1b:f9:98:5a:d9:b9:
         45:de:91:38:5b:8b:7d:01:52:d7:b4:2b:9e:ea:46:77:56:f3:
         ac:c2:ef:bc
-----BEGIN CERTIFICATE-----
MIIEnDCCA4SgAwIBAgIBaTANBgkqhkiG9w0BAQUFADCBmDELMAkGA1UEBhMCVVMx
EzARBgNVBAgMCldhc2hpbmd0b24xEDAOBgNVBAcMB1NlYXR0bGUxFTATBgNVBAoM
DHdvbGZTU0wgSW5jLjEUMBIGA1UECwwLRW5naW5lZXJpbmcxFDASBgNVBAMMC1Nl
cnZlciAxIENBMR8wHQYJKoZIhvcNAQkBFhBpbmZvQHdvbGZzc2wuY29tMB4XDTIx
MDcwNDA0MzkyMloXDTI0MDMzMDA0MzkyMlowgZUxCzAJBgNVBAYTAlVTMRMwEQYD
VQQIDApXYXNoaW5ndG9uMRAwDgYDVQQHDAdTZWF0dGxlMRUwEwYDVQQKDAx3b2xm
U1NMIEluYy4xFDASBgNVBAsMC0VuZ2luZWVyaW5nMREwDwYDVQQDDAhTZXJ2ZXIg
MTEfMB0GCSqGSIb3DQEJARYQaW5mb0B3b2xmc3NsLmNvbTCCASIwDQYJKoZIhvcN
AQEBBQADggEPADCCAQoCggEBAMCVCOFXQfJxbbfSRUEnAWXGRa7yvCQwuJXOL07W
9hyIvHyf+6hnf/5cnFF194rKB+c1L4/hvXvAL3yrZKgX/Mpde7rgIeVyLm8uhtiV
c9qsG1O5Xz/XGQ0lT+FjY1GLC2Q/rUO4pRxcNLOuAKBjxfZ/C1loeHOmjBipAm2v
wxkBLrgQ48bMQLRpo0YzaYduxLsXpvPo3a1zvHsvIbX9ZlEMvVSz4W1fHLwjc9EJ
A4kU0hC5ZMMq0KGWSrzh1Bpbx6DAwWN4D0Q3MDKWgDIjlaF3uhPSl3PiXSXJag3D
OWCktLBpQkIJ6dgIvDMgs1gip6rrxOHmYYPF0pbf2dBPrdcCAwEAAaOB8TCB7jAd
BgNVHQ4EFgQUsxEyyZKYhOLJ+NA7bgNCyh8OjjwwgcEGA1UdIwSBuTCBtoAUsxEy
yZKYhOLJ+NA7bgNCyh8OjjyhgZqkgZcwgZQxCzAJBgNVBAYTAlVTMRAwDgYDVQQI
DAdNb250YW5hMRAwDgYDVQQHDAdCb3plbWFuMREwDwYDVQQKDAhTYXd0b290aDET
MBEGA1UECwwKQ29uc3VsdGluZzEYMBYGA1UEAwwPd3d3LndvbGZzc2wuY29tMR8w
HQYJKoZIhvcNAQkBFhBpbmZvQHdvbGZzc2wuY29tggFmMAkGA1UdEwQCMAAwDQYJ
KoZIhvcNAQEFBQADggEBAAeZif80CBoQ8ewfdE4266zfbo3EYKTYPGZ4pE6HxurZ
u4jySpnricC+mQ3YgrknmFzJeZlavZA/WYsvb/vfL+zoJKzQsj+oSN4OvD8hMN+D
3tb/XCFdE8raydjVs66owsXZlSt4rSAwU3VQbUMs7/t1YTLaSIZE1f9bIfFVp5hf
cCX2gcFpkYGY6507xZq8PqzI86/1rfqab59GmjAIfnvVhRPX4Ta1VZp086UsdN1L
iQkKIbXh3QMllo2zxIOa+3nkYTTpR6bc/duIn0y7YsHzK+VuHPmh+EfvBc9P9Srb
sgYkrBv5mFrZuUXekThbi30BUte0K57qRndW86zC77w=
-----END CERTIFICATE-----
Certificate:
    Data:
        Version: 3 (0x2)
        Serial Number: 102 (0x66)
    Signature Algorithm: sha1WithRSAEncryption
        Issuer: C=US, ST=Montana, L=Bozeman, O=Sawtooth, OU=Consulting, CN=www.wolfssl.com/emailAddress=info@wolfssl.com
        Validity
            Not Before: Jul  4 04:39:22 2021 GMT
            Not After : Mar 30 04:39:22 2024 GMT
        Subject: C=US, ST=Washington, L=Seattle, O=wolfSSL Inc., OU=Engineering, CN=Server 1 CA/emailAddress=info@wolfssl.com
        Subject Public Key Info:
            Public Key Algorithm: rsaEncryption
                Public-Key: (2048 bit)
                Modulus:
                    00:c0:95:08:e1:57:41:f2:71:6d:b7:d2:45:41:27:
                    01:65:c6:45:ae:f2:bc:24:30:b8:95:ce:2f:4e:d6:
                    f6:1c:88:bc:7c:9f:fb:a8:67:7f:fe:5c:9c:51:75:
                    f7:8a:ca:07:e7:35:2f:8f:e1:bd:7b:c0:2f:7c:ab:
                    64:a8:17:fc:ca:5d:7b:ba:e0:21:e5:72:2e:6f:2e:
                    86:d8:95:73:da:ac:1b:53:b9:5f:3f:d7:19:0d:25:
                    4f:e1:63:63:51:8b:0b:64:3f:ad:43:b8:a5:1c:5c:
                    34:b3:ae:00:a0:63:c5:f6:7f:0b:59:68:78:73:a6:
                    8c:18:a9:02:6d:af:c3:19:01:2e:b8:10:e3:c6:cc:
                    40:b4:69:a3:46:33:69:87:6e:c4:bb:17:a6:f3:e8:
                    dd:ad:73:bc:7b:2f:21:b5:fd:66:51:0c:bd:54:b3:
                    e1:6d:5f:1c:bc:23:73:d1:09:03:89:14:d2:10:b9:
                    64:c3:2a:d0:a1:96:4a:bc:e1:d4:1a:5b:c7:a0:c0:
                    c1:63:78:0f:44:37:30:32:96:80:32:23:95:a1:77:
                    ba:13:d2:97:73:e2:5d:25:c9:6a:0d:c3:39:60:a4:
                    b4:b0:69:42:42:09:e9:d8:08:bc:33:20:b3:58:22:
                    a7:aa:eb:c4:e1:e6:61:83:c5:d2:96:df:d9:d0:4f:
                    ad:d7
                Exponent: 65537 (0x10001)
        X509v3 extensions:
            X509v3 Subject Key Identifier: 
                B3:11:32:C9:92:98:84:E2:C9:F8:D0:3B:6E:03:42:CA:1F:0E:8E:3C
            X509v3 Authority Key Identifier: 
                keyid:27:8E:67:11:74:C3:26:1D:3F:ED:33:63:B3:A4:D8:1D:30:E5:E8:D5
                DirName:/C=US/ST=Montana/L=Bozeman/O=Sawtooth/OU=Consulting/CN=www.wolfssl.com/emailAddress=info@wolfssl.com
                serial:81:32:7F:B3:64:03:E0:E2

            X509v3 Basic Constraints: 
                CA:TRUE, pathlen:1
            X509v3 Key Usage: 
                Certificate Sign, CRL Sign
    Signature Algorithm: sha1WithRSAEncryption
         9f:b5:15:f9:81:23:3a:f1:42:75:fd:ba:53:f8:54:27:4e:20:
         13:e1:55:ea:ff:4f:fc:2f:80:3f:66:70:07:e9:a7:72:c5:46:
         62:c8:a6:8f:86:71:be:bc:1c:fe:e5:68:e9:95:f8:db:9d:c3:
         7b:e3:67:f1:a6:25:9e:62:3d:01:8a:08:21:15:f9:35:f4:67:
         ee:86:63:23:40:3a:c1:8a:d4:98:2f:61:b2:23:38:75:5f:99:
         ad:24:9f:41:1b:3b:58:53:7d:52:c4:4d:6a:14:a3:c5:65:29:
         9e:5a:a2:3e:0e:64:f2:11:b4:b7:fc:74:ca:12:48:4c:1c:99:
         e6:0f:fc:c1:ce:ae:e7:0f:aa:39:8e:64:ba:d0:ef:6a:73:53:
         a6:39:cd:2e:b9:48:e9:b8:0a:d0:e9:cc:f5:a6:c2:4b:0d:3e:
         fb:a6:e5:c6:b0:9b:5e:50:fb:2c:99:3c:a4:ed:a6:74:24:7a:
         a1:7a:63:55:c2:27:8a:06:50:c1:d4:ac:f2:f0:0b:db:2a:8f:
         bf:94:e6:08:20:7f:67:b1:70:5c:7f:b6:a6:b0:d4:fa:78:13:
         83:c8:57:6a:ec:a3:2e:32:f4:c4:1b:03:0c:73:33:30:7a:8f:
         93:38:49:d4:d1:2f:a3:14:8d:2c:a0:26:fb:b5:16:33:d3:0b:
         94:10:e4:e7
-----BEGIN CERTIFICATE-----
MIIEuDCCA6CgAwIBAgIBZjANBgkqhkiG9w0BAQUFADCBlDELMAkGA1UEBhMCVVMx
EDAOBgNVBAgMB01vbnRhbmExEDAOBgNVBAcMB0JvemVtYW4xETAPBgNVBAoMCFNh
d3Rvb3RoMRMwEQYDVQQLDApDb25zdWx0aW5nMRgwFgYDVQQDDA93d3cud29sZnNz
bC5jb20xHzAdBgkqhkiG9w0BCQEWEGluZm9Ad29sZnNzbC5jb20wHhcNMjEwNzA0
MDQzOTIyWhcNMjQwMzMwMDQzOTIyWjCBmDELMAkGA1UEBhMCVVMxEzARBgNVBAgM
Cldhc2hpbmd0b24xEDAOBgNVBAcMB1NlYXR0bGUxFTATBgNVBAoMDHdvbGZTU0wg
SW5jLjEUMBIGA1UECwwLRW5naW5lZXJpbmcxFDASBgNVBAMMC1NlcnZlciAxIENB
MR8wHQYJKoZIhvcNAQkBFhBpbmZvQHdvbGZzc2wuY29tMIIBIjANBgkqhkiG9w0B
AQEFAAOCAQ8AMIIBCgKCAQEAwJUI4VdB8nFtt9JFQScBZcZFrvK8JDC4lc4vTtb2
HIi8fJ/7qGd//lycUXX3isoH5zUvj+G9e8AvfKtkqBf8yl17uuAh5XIuby6G2JVz
2qwbU7lfP9cZDSVP4WNjUYsLZD+tQ7ilHFw0s64AoGPF9n8LWWh4c6aMGKkCba/D
GQEuuBDjxsxAtGmjRjNph27Euxem8+jdrXO8ey8htf1mUQy9VLPhbV8cvCNz0QkD
iRTSELlkwyrQoZZKvOHUGlvHoMDBY3gPRDcwMpaAMiOVoXe6E9KXc+JdJclqDcM5
YKS0sGlCQgnp2Ai8MyCzWCKnquvE4eZhg8XSlt/Z0E+t1wIDAQABo4IBDTCCAQkw
HQYDVR0OBBYEFLMRMsmSmITiyfjQO24DQsofDo48MIHJBgNVHSMEgcEwgb6AFCeO
ZxF0wyYdP+0zY7Ok2B0w5ejVoYGapIGXMIGUMQswCQYDVQQGEwJVUzEQMA4GA1UE
CAwHTW9udGFuYTEQMA4GA1UEBwwHQm96ZW1hbjERMA8GA1UECgwIU2F3dG9vdGgx
EzARBgNVBAsMCkNvbnN1bHRpbmcxGDAWBgNVBAMMD3d3dy53b2xmc3NsLmNvbTEf
MB0GCSqGSIb3DQEJARYQaW5mb0B3b2xmc3NsLmNvbYIJAIEyf7NkA+DiMA8GA1Ud
EwQIMAYBAf8CAQEwCwYDVR0PBAQDAgEGMA0GCSqGSIb3DQEBBQUAA4IBAQCftRX5
gSM68UJ1/bpT+FQnTiAT4VXq/0/8L4A/ZnAH6adyxUZiyKaPhnG+vBz+5Wjplfjb
ncN742fxpiWeYj0BigghFfk19GfuhmMjQDrBitSYL2GyIzh1X5mtJJ9BGztYU31S
xE1qFKPFZSmeWqI+DmTyEbS3/HTKEkhMHJnmD/zBzq7nD6o5jmS60O9qc1OmOc0u
uUjpuArQ6cz1psJLDT77puXGsJteUPssmTyk7aZ0JHqhemNVwieKBlDB1Kzy8Avb
Ko+/lOYIIH9nsXBcf7amsNT6eBODyFdq7KMuMvTEGwMMczMweo+TOEnU0S+jFI0s
oCb7tRYz0wuUEOTn
-----END CERTIFICATE-----
