Certificate:
    Data:
        Version: 3 (0x2)
        Serial Number: 106 (0x6a)
    Signature Algorithm: sha1WithRSAEncryption
        Issuer: C=US, ST=Montana, L=Bozeman, O=Sawtooth, OU=Consulting, CN=www.wolfssl.com/emailAddress=info@wolfssl.com
        Validity
            Not Before: Jul  4 04:39:23 2021 GMT
            Not After : Mar 30 04:39:23 2024 GMT
        Subject: C=US, ST=Washington, L=Seattle, O=wolfSSL Inc., OU=Engineering, CN=Server 127 CA/emailAddress=info@wolfssl.com
        Subject Public Key Info:
            Public Key Algorithm: rsaEncryption
                Public-Key: (2048 bit)
                Modulus:
                    00:c0:95:08:e1:57:41:f2:71:6d:b7:d2:45:41:27:
                    01:65:c6:45:ae:f2:bc:24:30:b8:95:ce:2f:4e:d6:
                    f6:1c:88:bc:7c:9f:fb:a8:67:7f:fe:5c:9c:51:75:
                    f7:8a:ca:07:e7:35:2f:8f:e1:bd:7b:c0:2f:7c:ab:
                    64:a8:17:fc:ca:5d:7b:ba:e0:21:e5:72:2e:6f:2e:
                    86:d8:95:73:da:ac:1b:53:b9:5f:3f:d7:19:0d:25:
                    4f:e1:63:63:51:8b:0b:64:3f:ad:43:b8:a5:1c:5c:
                    34:b3:ae:00:a0:63:c5:f6:7f:0b:59:68:78:73:a6:
                    8c:18:a9:02:6d:af:c3:19:01:2e:b8:10:e3:c6:cc:
                    40:b4:69:a3:46:33:69:87:6e:c4:bb:17:a6:f3:e8:
                    dd:ad:73:bc:7b:2f:21:b5:fd:66:51:0c:bd:54:b3:
                    e1:6d:5f:1c:bc:23:73:d1:09:03:89:14:d2:10:b9:
                    64:c3:2a:d0:a1:96:4a:bc:e1:d4:1a:5b:c7:a0:c0:
                    c1:63:78:0f:44:37:30:32:96:80:32:23:95:a1:77:
                    ba:13:d2:97:73:e2:5d:25:c9:6a:0d:c3:39:60:a4:
                    b4:b0:69:42:42:09:e9:d8:08:bc:33:20:b3:58:22:
                    a7:aa:eb:c4:e1:e6:61:83:c5:d2:96:df:d9:d0:4f:
                    ad:d7
                Exponent: 65537 (0x10001)
        X509v3 extensions:
            X509v3 Subject Key Identifier: 
                B3:11:32:C9:92:98:84:E2:C9:F8:D0:3B:6E:03:42:CA:1F:0E:8E:3C
            X509v3 Authority Key Identifier: 
                keyid:27:8E:67:11:74:C3:26:1D:3F:ED:33:63:B3:A4:D8:1D:30:E5:E8:D5
                DirName:/C=US/ST=Montana/L=Bozeman/O=Sawtooth/OU=Consulting/CN=www.wolfssl.com/emailAddress=info@wolfssl.com
                serial:81:32:7F:B3:64:03:E0:E2

            X509v3 Basic Constraints: 
                CA:TRUE, pathlen:127
            X509v3 Key Usage: 
                Certificate Sign, CRL Sign
    Signature Algorithm: sha1WithRSAEncryption
         6c:12:69:3c:4d:c9:55:d7:4e:e0:45:05:27:e2:a1:39:0a:8c:
         b4:f3:af:43:32:e5:02:9d:04:e4:3c:00:85:c3:b7:cb:b9:4b:
         d3:09:ec:17:fc:53:ce:3c:ed:fd:69:00:7e:0e:5b:7d:91:7f:
         96:08:76:c4:66:dc:d8:6e:c0:45:23:1c:af:33:e0:5a:92:12:
         ea:9d:90:bf:41:08:43:06:e3:3f:48:77:3a:37:8b:12:6a:24:
         de:55:17:51:f8:46:40:e7:ce:f2:f6:be:9b:a7:9b:4d:95:7b:
         e9:de:4f:68:e6:f2:84:e7:35:1b:91:fd:81:16:45:c1:54:97:
         21:86:0c:85:e7:6d:97:60:94:61:54:ce:47:e2:2f:62:fb:09:
         3d:11:85:7e:5a:dd:a7:48:a8:b8:95:48:88:d3:eb:f0:fb:39:
         49:a8:bd:98:a8:10:3f:de:9e:19:de:32:73:51:fd:69:bb:b8:
         7c:5c:0b:0f:72:c7:d9:67:bd:31:1e:ba:2b:73:af:51:b0:d2:
         89:12:0f:8e:ea:b6:17:8a:2d:86:d9:65:74:e4:46:ba:9f:5f:
         7f:2b:d4:e6:99:cb:4e:cf:61:cf:f3:5a:cf:c1:f0:27:1a:05:
         9f:e5:97:25:0d:9b:7e:8f:2b:9d:9c:cb:8d:5b:10:d0:67:31:
         8e:ed:69:08
-----BEGIN CERTIFICATE-----
MIIEujCCA6KgAwIBAgIBajANBgkqhkiG9w0BAQUFADCBlDELMAkGA1UEBhMCVVMx
EDAOBgNVBAgMB01vbnRhbmExEDAOBgNVBAcMB0JvemVtYW4xETAPBgNVBAoMCFNh
d3Rvb3RoMRMwEQYDVQQLDApDb25zdWx0aW5nMRgwFgYDVQQDDA93d3cud29sZnNz
bC5jb20xHzAdBgkqhkiG9w0BCQEWEGluZm9Ad29sZnNzbC5jb20wHhcNMjEwNzA0
MDQzOTIzWhcNMjQwMzMwMDQzOTIzWjCBmjELMAkGA1UEBhMCVVMxEzARBgNVBAgM
Cldhc2hpbmd0b24xEDAOBgNVBAcMB1NlYXR0bGUxFTATBgNVBAoMDHdvbGZTU0wg
SW5jLjEUMBIGA1UECwwLRW5naW5lZXJpbmcxFjAUBgNVBAMMDVNlcnZlciAxMjcg
Q0ExHzAdBgkqhkiG9w0BCQEWEGluZm9Ad29sZnNzbC5jb20wggEiMA0GCSqGSIb3
DQEBAQUAA4IBDwAwggEKAoIBAQDAlQjhV0HycW230kVBJwFlxkWu8rwkMLiVzi9O
1vYciLx8n/uoZ3/+XJxRdfeKygfnNS+P4b17wC98q2SoF/zKXXu64CHlci5vLobY
lXParBtTuV8/1xkNJU/hY2NRiwtkP61DuKUcXDSzrgCgY8X2fwtZaHhzpowYqQJt
r8MZAS64EOPGzEC0aaNGM2mHbsS7F6bz6N2tc7x7LyG1/WZRDL1Us+FtXxy8I3PR
CQOJFNIQuWTDKtChlkq84dQaW8egwMFjeA9ENzAyloAyI5Whd7oT0pdz4l0lyWoN
wzlgpLSwaUJCCenYCLwzILNYIqeq68Th5mGDxdKW39nQT63XAgMBAAGjggENMIIB
CTAdBgNVHQ4EFgQUsxEyyZKYhOLJ+NA7bgNCyh8OjjwwgckGA1UdIwSBwTCBvoAU
J45nEXTDJh0/7TNjs6TYHTDl6NWhgZqkgZcwgZQxCzAJBgNVBAYTAlVTMRAwDgYD
VQQIDAdNb250YW5hMRAwDgYDVQQHDAdCb3plbWFuMREwDwYDVQQKDAhTYXd0b290
aDETMBEGA1UECwwKQ29uc3VsdGluZzEYMBYGA1UEAwwPd3d3LndvbGZzc2wuY29t
MR8wHQYJKoZIhvcNAQkBFhBpbmZvQHdvbGZzc2wuY29tggkAgTJ/s2QD4OIwDwYD
VR0TBAgwBgEB/wIBfzALBgNVHQ8EBAMCAQYwDQYJKoZIhvcNAQEFBQADggEBAGwS
aTxNyVXXTuBFBSfioTkKjLTzr0My5QKdBOQ8AIXDt8u5S9MJ7Bf8U8487f1pAH4O
W32Rf5YIdsRm3NhuwEUjHK8z4FqSEuqdkL9BCEMG4z9Idzo3ixJqJN5VF1H4RkDn
zvL2vpunm02Ve+neT2jm8oTnNRuR/YEWRcFUlyGGDIXnbZdglGFUzkfiL2L7CT0R
hX5a3adIqLiVSIjT6/D7OUmovZioED/enhneMnNR/Wm7uHxcCw9yx9lnvTEeuitz
r1Gw0okSD47qtheKLYbZZXTkRrqfX38r1OaZy07PYc/zWs/B8CcaBZ/llyUNm36P
K52cy41bENBnMY7taQg=
-----END CERTIFICATE-----
