Certificate:
    Data:
        Version: 3 (0x2)
        Serial Number: 110 (0x6e)
    Signature Algorithm: sha1WithRSAEncryption
        Issuer: C=US, ST=Washington, L=Seattle, O=wolfSSL Inc., OU=Engineering, CN=Server 0 CA/emailAddress=info@wolfssl.com
        Validity
            Not Before: Jul  4 04:39:22 2021 GMT
            Not After : Mar 30 04:39:22 2024 GMT
        Subject: C=US, ST=Washington, L=Seattle, O=wolfSSL Inc., OU=Engineering, CN=Server 0-1 CA/emailAddress=info@wolfssl.com
        Subject Public Key Info:
            Public Key Algorithm: rsaEncryption
                Public-Key: (2048 bit)
                Modulus:
                    00:c0:95:08:e1:57:41:f2:71:6d:b7:d2:45:41:27:
                    01:65:c6:45:ae:f2:bc:24:30:b8:95:ce:2f:4e:d6:
                    f6:1c:88:bc:7c:9f:fb:a8:67:7f:fe:5c:9c:51:75:
                    f7:8a:ca:07:e7:35:2f:8f:e1:bd:7b:c0:2f:7c:ab:
                    64:a8:17:fc:ca:5d:7b:ba:e0:21:e5:72:2e:6f:2e:
                    86:d8:95:73:da:ac:1b:53:b9:5f:3f:d7:19:0d:25:
                    4f:e1:63:63:51:8b:0b:64:3f:ad:43:b8:a5:1c:5c:
                    34:b3:ae:00:a0:63:c5:f6:7f:0b:59:68:78:73:a6:
                    8c:18:a9:02:6d:af:c3:19:01:2e:b8:10:e3:c6:cc:
                    40:b4:69:a3:46:33:69:87:6e:c4:bb:17:a6:f3:e8:
                    dd:ad:73:bc:7b:2f:21:b5:fd:66:51:0c:bd:54:b3:
                    e1:6d:5f:1c:bc:23:73:d1:09:03:89:14:d2:10:b9:
                    64:c3:2a:d0:a1:96:4a:bc:e1:d4:1a:5b:c7:a0:c0:
                    c1:63:78:0f:44:37:30:32:96:80:32:23:95:a1:77:
                    ba:13:d2:97:73:e2:5d:25:c9:6a:0d:c3:39:60:a4:
                    b4:b0:69:42:42:09:e9:d8:08:bc:33:20:b3:58:22:
                    a7:aa:eb:c4:e1:e6:61:83:c5:d2:96:df:d9:d0:4f:
                    ad:d7
                Exponent: 65537 (0x10001)
        X509v3 extensions:
            X509v3 Subject Key Identifier: 
                B3:11:32:C9:92:98:84:E2:C9:F8:D0:3B:6E:03:42:CA:1F:0E:8E:3C
            X509v3 Authority Key Identifier: 
                keyid:B3:11:32:C9:92:98:84:E2:C9:F8:D0:3B:6E:03:42:CA:1F:0E:8E:3C
                DirName:/C=US/ST=Montana/L=Bozeman/O=Sawtooth/OU=Consulting/CN=www.wolfssl.com/emailAddress=info@wolfssl.com
                serial:64

            X509v3 Basic Constraints: 
                CA:TRUE, pathlen:1
            X509v3 Key Usage: 
                Certificate Sign, CRL Sign
    Signature Algorithm: sha1WithRSAEncryption
         b0:0f:c4:cf:75:d5:ae:9c:02:b8:35:15:3e:bb:52:40:17:c4:
         00:5a:e8:39:7e:a4:ca:43:5c:de:fb:12:18:67:79:2a:b4:19:
         6a:29:87:58:cf:04:92:15:3d:43:c4:16:ba:f6:78:d9:5a:0a:
         16:34:6f:e7:f8:fc:60:94:5d:bd:14:bf:db:28:50:f9:8c:79:
         a0:39:03:ad:6c:43:4b:c5:87:f7:68:d5:95:c2:a0:da:1c:56:
         35:25:8e:82:2a:ed:bd:0f:a5:80:85:0e:df:cf:79:81:ef:90:
         4f:5c:dd:ed:ad:b2:05:11:c3:1f:e1:2d:5d:ac:53:d1:44:68:
         1b:fb:83:16:7f:60:6a:b7:bc:76:79:7c:fd:3f:5e:14:2a:bc:
         e3:58:d3:73:df:53:d0:a5:69:92:97:29:7b:f2:89:50:1f:ef:
         e5:2a:b1:8e:cb:22:fc:0b:50:02:7b:45:e1:98:d9:bc:f6:05:
         3c:37:aa:4d:15:61:b7:3c:be:69:b5:2f:5a:92:45:c2:e7:f0:
         37:55:c3:a0:cf:4c:a1:c4:40:a2:85:95:4d:af:95:a2:94:2c:
         35:7c:6f:75:54:21:95:06:fc:b1:8a:5a:9b:58:86:2c:77:0f:
         a3:8a:33:78:4e:fb:3f:d3:5b:4a:d5:fc:0c:c0:85:b3:31:a7:
         f2:b3:59:8e
-----BEGIN CERTIFICATE-----
MIIEtjCCA56gAwIBAgIBbjANBgkqhkiG9w0BAQUFADCBmDELMAkGA1UEBhMCVVMx
EzARBgNVBAgMCldhc2hpbmd0b24xEDAOBgNVBAcMB1NlYXR0bGUxFTATBgNVBAoM
DHdvbGZTU0wgSW5jLjEUMBIGA1UECwwLRW5naW5lZXJpbmcxFDASBgNVBAMMC1Nl
cnZlciAwIENBMR8wHQYJKoZIhvcNAQkBFhBpbmZvQHdvbGZzc2wuY29tMB4XDTIx
MDcwNDA0MzkyMloXDTI0MDMzMDA0MzkyMlowgZoxCzAJBgNVBAYTAlVTMRMwEQYD
VQQIDApXYXNoaW5ndG9uMRAwDgYDVQQHDAdTZWF0dGxlMRUwEwYDVQQKDAx3b2xm
U1NMIEluYy4xFDASBgNVBAsMC0VuZ2luZWVyaW5nMRYwFAYDVQQDDA1TZXJ2ZXIg
MC0xIENBMR8wHQYJKoZIhvcNAQkBFhBpbmZvQHdvbGZzc2wuY29tMIIBIjANBgkq
hkiG9w0BAQEFAAOCAQ8AMIIBCgKCAQEAwJUI4VdB8nFtt9JFQScBZcZFrvK8JDC4
lc4vTtb2HIi8fJ/7qGd//lycUXX3isoH5zUvj+G9e8AvfKtkqBf8yl17uuAh5XIu
by6G2JVz2qwbU7lfP9cZDSVP4WNjUYsLZD+tQ7ilHFw0s64AoGPF9n8LWWh4c6aM
GKkCba/DGQEuuBDjxsxAtGmjRjNph27Euxem8+jdrXO8ey8htf1mUQy9VLPhbV8c
vCNz0QkDiRTSELlkwyrQoZZKvOHUGlvHoMDBY3gPRDcwMpaAMiOVoXe6E9KXc+Jd
JclqDcM5YKS0sGlCQgnp2Ai8MyCzWCKnquvE4eZhg8XSlt/Z0E+t1wIDAQABo4IB
BTCCAQEwHQYDVR0OBBYEFLMRMsmSmITiyfjQO24DQsofDo48MIHBBgNVHSMEgbkw
gbaAFLMRMsmSmITiyfjQO24DQsofDo48oYGapIGXMIGUMQswCQYDVQQGEwJVUzEQ
MA4GA1UECAwHTW9udGFuYTEQMA4GA1UEBwwHQm96ZW1hbjERMA8GA1UECgwIU2F3
dG9vdGgxEzARBgNVBAsMCkNvbnN1bHRpbmcxGDAWBgNVBAMMD3d3dy53b2xmc3Ns
LmNvbTEfMB0GCSqGSIb3DQEJARYQaW5mb0B3b2xmc3NsLmNvbYIBZDAPBgNVHRME
CDAGAQH/AgEBMAsGA1UdDwQEAwIBBjANBgkqhkiG9w0BAQUFAAOCAQEAsA/Ez3XV
rpwCuDUVPrtSQBfEAFroOX6kykNc3vsSGGd5KrQZaimHWM8EkhU9Q8QWuvZ42VoK
FjRv5/j8YJRdvRS/2yhQ+Yx5oDkDrWxDS8WH92jVlcKg2hxWNSWOgirtvQ+lgIUO
3895ge+QT1zd7a2yBRHDH+EtXaxT0URoG/uDFn9gare8dnl8/T9eFCq841jTc99T
0KVpkpcpe/KJUB/v5Sqxjssi/AtQAntF4ZjZvPYFPDeqTRVhtzy+abUvWpJFwufw
N1XDoM9MocRAooWVTa+VopQsNXxvdVQhlQb8sYpam1iGLHcPo4ozeE77P9NbStX8
DMCFszGn8rNZjg==
-----END CERTIFICATE-----
