Certificate:
    Data:
        Version: 3 (0x2)
        Serial Number: 111 (0x6f)
    Signature Algorithm: sha1WithRSAEncryption
        Issuer: C=US, ST=Washington, L=Seattle, O=wolfSSL Inc., OU=Engineering, CN=Server 0-1 CA/emailAddress=info@wolfssl.com
        Validity
            Not Before: Jul  4 04:39:23 2021 GMT
            Not After : Mar 30 04:39:23 2024 GMT
        Subject: C=US, ST=Washington, L=Seattle, O=wolfSSL Inc., OU=Engineering, CN=Server 0-1/emailAddress=info@wolfssl.com
        Subject Public Key Info:
            Public Key Algorithm: rsaEncryption
                Public-Key: (2048 bit)
                Modulus:
                    00:c0:95:08:e1:57:41:f2:71:6d:b7:d2:45:41:27:
                    01:65:c6:45:ae:f2:bc:24:30:b8:95:ce:2f:4e:d6:
                    f6:1c:88:bc:7c:9f:fb:a8:67:7f:fe:5c:9c:51:75:
                    f7:8a:ca:07:e7:35:2f:8f:e1:bd:7b:c0:2f:7c:ab:
                    64:a8:17:fc:ca:5d:7b:ba:e0:21:e5:72:2e:6f:2e:
                    86:d8:95:73:da:ac:1b:53:b9:5f:3f:d7:19:0d:25:
                    4f:e1:63:63:51:8b:0b:64:3f:ad:43:b8:a5:1c:5c:
                    34:b3:ae:00:a0:63:c5:f6:7f:0b:59:68:78:73:a6:
                    8c:18:a9:02:6d:af:c3:19:01:2e:b8:10:e3:c6:cc:
                    40:b4:69:a3:46:33:69:87:6e:c4:bb:17:a6:f3:e8:
                    dd:ad:73:bc:7b:2f:21:b5:fd:66:51:0c:bd:54:b3:
                    e1:6d:5f:1c:bc:23:73:d1:09:03:89:14:d2:10:b9:
                    64:c3:2a:d0:a1:96:4a:bc:e1:d4:1a:5b:c7:a0:c0:
                    c1:63:78:0f:44:37:30:32:96:80:32:23:95:a1:77:
                    ba:13:d2:97:73:e2:5d:25:c9:6a:0d:c3:39:60:a4:
                    b4:b0:69:42:42:09:e9:d8:08:bc:33:20:b3:58:22:
                    a7:aa:eb:c4:e1:e6:61:83:c5:d2:96:df:d9:d0:4f:
                    ad:d7
                Exponent: 65537 (0x10001)
        X509v3 extensions:
            X509v3 Subject Key Identifier: 
                B3:11:32:C9:92:98:84:E2:C9:F8:D0:3B:6E:03:42:CA:1F:0E:8E:3C
            X509v3 Authority Key Identifier: 
                keyid:B3:11:32:C9:92:98:84:E2:C9:F8:D0:3B:6E:03:42:CA:1F:0E:8E:3C
                DirName:/C=US/ST=Washington/L=Seattle/O=wolfSSL Inc./OU=Engineering/CN=Server 0 CA/emailAddress=info@wolfssl.com
                serial:6E

            X509v3 Basic Constraints: 
                CA:FALSE
    Signature Algorithm: sha1WithRSAEncryption
         ae:f3:c0:5a:7d:29:c7:a1:06:67:61:e3:7f:5e:27:6f:69:d9:
         60:03:94:6e:3c:c0:7b:5c:84:1f:40:1d:3e:ba:69:d2:cd:f8:
         22:c2:7d:a1:05:2e:02:8d:d4:7f:bc:18:41:c1:8e:d9:63:23:
         a3:02:9b:a9:e7:37:63:48:4d:fb:13:2e:f0:b5:3b:ca:45:9c:
         6e:82:b9:a1:2b:83:6e:d1:11:bc:64:12:5f:e9:68:ec:46:76:
         c1:09:eb:9d:4c:71:f0:a6:3f:85:e0:a4:71:9f:dc:f9:ac:8f:
         af:46:5c:64:b1:ba:43:af:00:fa:d2:69:60:3f:b5:8f:57:c1:
         3c:58:aa:e6:8c:90:08:09:00:d3:db:bc:a9:3d:b6:ef:b8:49:
         dc:6b:02:48:65:9e:0a:27:3f:a7:82:d8:91:18:76:19:84:ab:
         e5:f8:a8:23:a2:93:c3:6f:e1:7f:d2:41:ac:ec:94:3e:b3:59:
         fe:0a:bf:d9:78:af:74:38:fb:87:a6:11:17:5e:b6:eb:99:c1:
         96:b2:50:41:fe:e7:c8:76:d1:ea:a9:c1:10:95:3a:60:e2:18:
         7f:42:e6:e2:bc:71:4d:67:f8:3d:53:50:49:00:25:3b:93:91:
         32:60:cb:c9:f2:f8:e4:31:1d:2f:15:53:5f:f8:f9:9f:ed:e0:
         b0:cd:7f:1b
-----BEGIN CERTIFICATE-----
MIIEpDCCA4ygAwIBAgIBbzANBgkqhkiG9w0BAQUFADCBmjELMAkGA1UEBhMCVVMx
EzARBgNVBAgMCldhc2hpbmd0b24xEDAOBgNVBAcMB1NlYXR0bGUxFTATBgNVBAoM
DHdvbGZTU0wgSW5jLjEUMBIGA1UECwwLRW5naW5lZXJpbmcxFjAUBgNVBAMMDVNl
cnZlciAwLTEgQ0ExHzAdBgkqhkiG9w0BCQEWEGluZm9Ad29sZnNzbC5jb20wHhcN
MjEwNzA0MDQzOTIzWhcNMjQwMzMwMDQzOTIzWjCBlzELMAkGA1UEBhMCVVMxEzAR
BgNVBAgMCldhc2hpbmd0b24xEDAOBgNVBAcMB1NlYXR0bGUxFTATBgNVBAoMDHdv
bGZTU0wgSW5jLjEUMBIGA1UECwwLRW5naW5lZXJpbmcxEzARBgNVBAMMClNlcnZl
ciAwLTExHzAdBgkqhkiG9w0BCQEWEGluZm9Ad29sZnNzbC5jb20wggEiMA0GCSqG
SIb3DQEBAQUAA4IBDwAwggEKAoIBAQDAlQjhV0HycW230kVBJwFlxkWu8rwkMLiV
zi9O1vYciLx8n/uoZ3/+XJxRdfeKygfnNS+P4b17wC98q2SoF/zKXXu64CHlci5v
LobYlXParBtTuV8/1xkNJU/hY2NRiwtkP61DuKUcXDSzrgCgY8X2fwtZaHhzpowY
qQJtr8MZAS64EOPGzEC0aaNGM2mHbsS7F6bz6N2tc7x7LyG1/WZRDL1Us+FtXxy8
I3PRCQOJFNIQuWTDKtChlkq84dQaW8egwMFjeA9ENzAyloAyI5Whd7oT0pdz4l0l
yWoNwzlgpLSwaUJCCenYCLwzILNYIqeq68Th5mGDxdKW39nQT63XAgMBAAGjgfUw
gfIwHQYDVR0OBBYEFLMRMsmSmITiyfjQO24DQsofDo48MIHFBgNVHSMEgb0wgbqA
FLMRMsmSmITiyfjQO24DQsofDo48oYGepIGbMIGYMQswCQYDVQQGEwJVUzETMBEG
A1UECAwKV2FzaGluZ3RvbjEQMA4GA1UEBwwHU2VhdHRsZTEVMBMGA1UECgwMd29s
ZlNTTCBJbmMuMRQwEgYDVQQLDAtFbmdpbmVlcmluZzEUMBIGA1UEAwwLU2VydmVy
IDAgQ0ExHzAdBgkqhkiG9w0BCQEWEGluZm9Ad29sZnNzbC5jb22CAW4wCQYDVR0T
BAIwADANBgkqhkiG9w0BAQUFAAOCAQEArvPAWn0px6EGZ2Hjf14nb2nZYAOUbjzA
e1yEH0AdPrpp0s34IsJ9oQUuAo3Uf7wYQcGO2WMjowKbqec3Y0hN+xMu8LU7ykWc
boK5oSuDbtERvGQSX+lo7EZ2wQnrnUxx8KY/heCkcZ/c+ayPr0ZcZLG6Q68A+tJp
YD+1j1fBPFiq5oyQCAkA09u8qT2277hJ3GsCSGWeCic/p4LYkRh2GYSr5fioI6KT
w2/hf9JBrOyUPrNZ/gq/2XivdDj7h6YRF16265nBlrJQQf7nyHbR6qnBEJU6YOIY
f0Lm4rxxTWf4PVNQSQAlO5ORMmDLyfL45DEdLxVTX/j5n+3gsM1/Gw==
-----END CERTIFICATE-----
Certificate:
    Data:
        Version: 3 (0x2)
        Serial Number: 110 (0x6e)
    Signature Algorithm: sha1WithRSAEncryption
        Issuer: C=US, ST=Washington, L=Seattle, O=wolfSSL Inc., OU=Engineering, CN=Server 0 CA/emailAddress=info@wolfssl.com
        Validity
            Not Before: Jul  4 04:39:22 2021 GMT
            Not After : Mar 30 04:39:22 2024 GMT
        Subject: C=US, ST=Washington, L=Seattle, O=wolfSSL Inc., OU=Engineering, CN=Server 0-1 CA/emailAddress=info@wolfssl.com
        Subject Public Key Info:
            Public Key Algorithm: rsaEncryption
                Public-Key: (2048 bit)
                Modulus:
                    00:c0:95:08:e1:57:41:f2:71:6d:b7:d2:45:41:27:
                    01:65:c6:45:ae:f2:bc:24:30:b8:95:ce:2f:4e:d6:
                    f6:1c:88:bc:7c:9f:fb:a8:67:7f:fe:5c:9c:51:75:
                    f7:8a:ca:07:e7:35:2f:8f:e1:bd:7b:c0:2f:7c:ab:
                    64:a8:17:fc:ca:5d:7b:ba:e0:21:e5:72:2e:6f:2e:
                    86:d8:95:73:da:ac:1b:53:b9:5f:3f:d7:19:0d:25:
                    4f:e1:63:63:51:8b:0b:64:3f:ad:43:b8:a5:1c:5c:
                    34:b3:ae:00:a0:63:c5:f6:7f:0b:59:68:78:73:a6:
                    8c:18:a9:02:6d:af:c3:19:01:2e:b8:10:e3:c6:cc:
                    40:b4:69:a3:46:33:69:87:6e:c4:bb:17:a6:f3:e8:
                    dd:ad:73:bc:7b:2f:21:b5:fd:66:51:0c:bd:54:b3:
                    e1:6d:5f:1c:bc:23:73:d1:09:03:89:14:d2:10:b9:
                    64:c3:2a:d0:a1:96:4a:bc:e1:d4:1a:5b:c7:a0:c0:
                    c1:63:78:0f:44:37:30:32:96:80:32:23:95:a1:77:
                    ba:13:d2:97:73:e2:5d:25:c9:6a:0d:c3:39:60:a4:
                    b4:b0:69:42:42:09:e9:d8:08:bc:33:20:b3:58:22:
                    a7:aa:eb:c4:e1:e6:61:83:c5:d2:96:df:d9:d0:4f:
                    ad:d7
                Exponent: 65537 (0x10001)
        X509v3 extensions:
            X509v3 Subject Key Identifier: 
                B3:11:32:C9:92:98:84:E2:C9:F8:D0:3B:6E:03:42:CA:1F:0E:8E:3C
            X509v3 Authority Key Identifier: 
                keyid:B3:11:32:C9:92:98:84:E2:C9:F8:D0:3B:6E:03:42:CA:1F:0E:8E:3C
                DirName:/C=US/ST=Montana/L=Bozeman/O=Sawtooth/OU=Consulting/CN=www.wolfssl.com/emailAddress=info@wolfssl.com
                serial:64

            X509v3 Basic Constraints: 
                CA:TRUE, pathlen:1
            X509v3 Key Usage: 
                Certificate Sign, CRL Sign
    Signature Algorithm: sha1WithRSAEncryption
         b0:0f:c4:cf:75:d5:ae:9c:02:b8:35:15:3e:bb:52:40:17:c4:
         00:5a:e8:39:7e:a4:ca:43:5c:de:fb:12:18:67:79:2a:b4:19:
         6a:29:87:58:cf:04:92:15:3d:43:c4:16:ba:f6:78:d9:5a:0a:
         16:34:6f:e7:f8:fc:60:94:5d:bd:14:bf:db:28:50:f9:8c:79:
         a0:39:03:ad:6c:43:4b:c5:87:f7:68:d5:95:c2:a0:da:1c:56:
         35:25:8e:82:2a:ed:bd:0f:a5:80:85:0e:df:cf:79:81:ef:90:
         4f:5c:dd:ed:ad:b2:05:11:c3:1f:e1:2d:5d:ac:53:d1:44:68:
         1b:fb:83:16:7f:60:6a:b7:bc:76:79:7c:fd:3f:5e:14:2a:bc:
         e3:58:d3:73:df:53:d0:a5:69:92:97:29:7b:f2:89:50:1f:ef:
         e5:2a:b1:8e:cb:22:fc:0b:50:02:7b:45:e1:98:d9:bc:f6:05:
         3c:37:aa:4d:15:61:b7:3c:be:69:b5:2f:5a:92:45:c2:e7:f0:
         37:55:c3:a0:cf:4c:a1:c4:40:a2:85:95:4d:af:95:a2:94:2c:
         35:7c:6f:75:54:21:95:06:fc:b1:8a:5a:9b:58:86:2c:77:0f:
         a3:8a:33:78:4e:fb:3f:d3:5b:4a:d5:fc:0c:c0:85:b3:31:a7:
         f2:b3:59:8e
-----BEGIN CERTIFICATE-----
MIIEtjCCA56gAwIBAgIBbjANBgkqhkiG9w0BAQUFADCBmDELMAkGA1UEBhMCVVMx
EzARBgNVBAgMCldhc2hpbmd0b24xEDAOBgNVBAcMB1NlYXR0bGUxFTATBgNVBAoM
DHdvbGZTU0wgSW5jLjEUMBIGA1UECwwLRW5naW5lZXJpbmcxFDASBgNVBAMMC1Nl
cnZlciAwIENBMR8wHQYJKoZIhvcNAQkBFhBpbmZvQHdvbGZzc2wuY29tMB4XDTIx
MDcwNDA0MzkyMloXDTI0MDMzMDA0MzkyMlowgZoxCzAJBgNVBAYTAlVTMRMwEQYD
VQQIDApXYXNoaW5ndG9uMRAwDgYDVQQHDAdTZWF0dGxlMRUwEwYDVQQKDAx3b2xm
U1NMIEluYy4xFDASBgNVBAsMC0VuZ2luZWVyaW5nMRYwFAYDVQQDDA1TZXJ2ZXIg
MC0xIENBMR8wHQYJKoZIhvcNAQkBFhBpbmZvQHdvbGZzc2wuY29tMIIBIjANBgkq
hkiG9w0BAQEFAAOCAQ8AMIIBCgKCAQEAwJUI4VdB8nFtt9JFQScBZcZFrvK8JDC4
lc4vTtb2HIi8fJ/7qGd//lycUXX3isoH5zUvj+G9e8AvfKtkqBf8yl17uuAh5XIu
by6G2JVz2qwbU7lfP9cZDSVP4WNjUYsLZD+tQ7ilHFw0s64AoGPF9n8LWWh4c6aM
GKkCba/DGQEuuBDjxsxAtGmjRjNph27Euxem8+jdrXO8ey8htf1mUQy9VLPhbV8c
vCNz0QkDiRTSELlkwyrQoZZKvOHUGlvHoMDBY3gPRDcwMpaAMiOVoXe6E9KXc+Jd
JclqDcM5YKS0sGlCQgnp2Ai8MyCzWCKnquvE4eZhg8XSlt/Z0E+t1wIDAQABo4IB
BTCCAQEwHQYDVR0OBBYEFLMRMsmSmITiyfjQO24DQsofDo48MIHBBgNVHSMEgbkw
gbaAFLMRMsmSmITiyfjQO24DQsofDo48oYGapIGXMIGUMQswCQYDVQQGEwJVUzEQ
MA4GA1UECAwHTW9udGFuYTEQMA4GA1UEBwwHQm96ZW1hbjERMA8GA1UECgwIU2F3
dG9vdGgxEzARBgNVBAsMCkNvbnN1bHRpbmcxGDAWBgNVBAMMD3d3dy53b2xmc3Ns
LmNvbTEfMB0GCSqGSIb3DQEJARYQaW5mb0B3b2xmc3NsLmNvbYIBZDAPBgNVHRME
CDAGAQH/AgEBMAsGA1UdDwQEAwIBBjANBgkqhkiG9w0BAQUFAAOCAQEAsA/Ez3XV
rpwCuDUVPrtSQBfEAFroOX6kykNc3vsSGGd5KrQZaimHWM8EkhU9Q8QWuvZ42VoK
FjRv5/j8YJRdvRS/2yhQ+Yx5oDkDrWxDS8WH92jVlcKg2hxWNSWOgirtvQ+lgIUO
3895ge+QT1zd7a2yBRHDH+EtXaxT0URoG/uDFn9gare8dnl8/T9eFCq841jTc99T
0KVpkpcpe/KJUB/v5Sqxjssi/AtQAntF4ZjZvPYFPDeqTRVhtzy+abUvWpJFwufw
N1XDoM9MocRAooWVTa+VopQsNXxvdVQhlQb8sYpam1iGLHcPo4ozeE77P9NbStX8
DMCFszGn8rNZjg==
-----END CERTIFICATE-----
Certificate:
    Data:
        Version: 3 (0x2)
        Serial Number: 100 (0x64)
    Signature Algorithm: sha1WithRSAEncryption
        Issuer: C=US, ST=Montana, L=Bozeman, O=Sawtooth, OU=Consulting, CN=www.wolfssl.com/emailAddress=info@wolfssl.com
        Validity
            Not Before: Jul  4 04:39:22 2021 GMT
            Not After : Mar 30 04:39:22 2024 GMT
        Subject: C=US, ST=Washington, L=Seattle, O=wolfSSL Inc., OU=Engineering, CN=Server 0 CA/emailAddress=info@wolfssl.com
        Subject Public Key Info:
            Public Key Algorithm: rsaEncryption
                Public-Key: (2048 bit)
                Modulus:
                    00:c0:95:08:e1:57:41:f2:71:6d:b7:d2:45:41:27:
                    01:65:c6:45:ae:f2:bc:24:30:b8:95:ce:2f:4e:d6:
                    f6:1c:88:bc:7c:9f:fb:a8:67:7f:fe:5c:9c:51:75:
                    f7:8a:ca:07:e7:35:2f:8f:e1:bd:7b:c0:2f:7c:ab:
                    64:a8:17:fc:ca:5d:7b:ba:e0:21:e5:72:2e:6f:2e:
                    86:d8:95:73:da:ac:1b:53:b9:5f:3f:d7:19:0d:25:
                    4f:e1:63:63:51:8b:0b:64:3f:ad:43:b8:a5:1c:5c:
                    34:b3:ae:00:a0:63:c5:f6:7f:0b:59:68:78:73:a6:
                    8c:18:a9:02:6d:af:c3:19:01:2e:b8:10:e3:c6:cc:
                    40:b4:69:a3:46:33:69:87:6e:c4:bb:17:a6:f3:e8:
                    dd:ad:73:bc:7b:2f:21:b5:fd:66:51:0c:bd:54:b3:
                    e1:6d:5f:1c:bc:23:73:d1:09:03:89:14:d2:10:b9:
                    64:c3:2a:d0:a1:96:4a:bc:e1:d4:1a:5b:c7:a0:c0:
                    c1:63:78:0f:44:37:30:32:96:80:32:23:95:a1:77:
                    ba:13:d2:97:73:e2:5d:25:c9:6a:0d:c3:39:60:a4:
                    b4:b0:69:42:42:09:e9:d8:08:bc:33:20:b3:58:22:
                    a7:aa:eb:c4:e1:e6:61:83:c5:d2:96:df:d9:d0:4f:
                    ad:d7
                Exponent: 65537 (0x10001)
        X509v3 extensions:
            X509v3 Subject Key Identifier: 
                B3:11:32:C9:92:98:84:E2:C9:F8:D0:3B:6E:03:42:CA:1F:0E:8E:3C
            X509v3 Authority Key Identifier: 
                keyid:27:8E:67:11:74:C3:26:1D:3F:ED:33:63:B3:A4:D8:1D:30:E5:E8:D5
                DirName:/C=US/ST=Montana/L=Bozeman/O=Sawtooth/OU=Consulting/CN=www.wolfssl.com/emailAddress=info@wolfssl.com
                serial:81:32:7F:B3:64:03:E0:E2

            X509v3 Basic Constraints: 
                CA:TRUE, pathlen:0
            X509v3 Key Usage: 
                Certificate Sign, CRL Sign
    Signature Algorithm: sha1WithRSAEncryption
         bc:28:f9:01:e8:7e:4a:ce:d1:e1:ad:7f:20:8d:19:fe:a0:78:
         1c:24:e0:78:01:0b:47:a6:66:d4:0e:0e:32:e1:84:05:49:28:
         01:b5:e8:ad:a3:95:cc:ec:ba:8f:09:83:d6:21:ae:bb:81:36:
         e3:b6:e4:3a:c7:6d:92:6f:67:c1:73:b8:eb:e3:fe:4a:bc:86:
         04:4f:ba:08:3e:23:65:02:f3:1f:ac:1b:22:7e:a3:bc:e5:f6:
         79:9b:b9:c5:d4:1f:b9:a1:4b:3e:b8:a2:0a:10:f3:3d:df:95:
         ad:3f:0f:d2:ef:c1:f5:4d:b6:56:6f:32:a8:95:f8:50:74:3f:
         d9:16:2a:dc:a7:5b:4d:3e:93:c5:0b:9a:9e:6c:b8:b6:a7:43:
         c4:20:a0:cc:16:2f:73:28:a1:d0:fe:cd:32:85:f8:a1:bd:26:
         9a:e9:9d:0c:e3:26:46:f4:53:4c:5f:7e:da:41:3e:80:2d:d4:
         34:ef:e3:75:fc:62:e3:f5:66:3d:94:6f:a4:8c:a0:06:87:be:
         bb:ba:dc:d1:3c:f1:ab:1f:ad:7e:99:95:55:ae:bd:e5:98:61:
         e5:b7:da:ba:d7:2c:9f:6b:76:62:cd:7f:de:0b:4c:65:98:cf:
         c7:f0:1e:09:c9:01:ca:85:1c:83:9e:06:f4:cb:4e:3a:13:a2:
         6b:cf:e3:8f
-----BEGIN CERTIFICATE-----
MIIEuDCCA6CgAwIBAgIBZDANBgkqhkiG9w0BAQUFADCBlDELMAkGA1UEBhMCVVMx
EDAOBgNVBAgMB01vbnRhbmExEDAOBgNVBAcMB0JvemVtYW4xETAPBgNVBAoMCFNh
d3Rvb3RoMRMwEQYDVQQLDApDb25zdWx0aW5nMRgwFgYDVQQDDA93d3cud29sZnNz
bC5jb20xHzAdBgkqhkiG9w0BCQEWEGluZm9Ad29sZnNzbC5jb20wHhcNMjEwNzA0
MDQzOTIyWhcNMjQwMzMwMDQzOTIyWjCBmDELMAkGA1UEBhMCVVMxEzARBgNVBAgM
Cldhc2hpbmd0b24xEDAOBgNVBAcMB1NlYXR0bGUxFTATBgNVBAoMDHdvbGZTU0wg
SW5jLjEUMBIGA1UECwwLRW5naW5lZXJpbmcxFDASBgNVBAMMC1NlcnZlciAwIENB
MR8wHQYJKoZIhvcNAQkBFhBpbmZvQHdvbGZzc2wuY29tMIIBIjANBgkqhkiG9w0B
AQEFAAOCAQ8AMIIBCgKCAQEAwJUI4VdB8nFtt9JFQScBZcZFrvK8JDC4lc4vTtb2
HIi8fJ/7qGd//lycUXX3isoH5zUvj+G9e8AvfKtkqBf8yl17uuAh5XIuby6G2JVz
2qwbU7lfP9cZDSVP4WNjUYsLZD+tQ7ilHFw0s64AoGPF9n8LWWh4c6aMGKkCba/D
GQEuuBDjxsxAtGmjRjNph27Euxem8+jdrXO8ey8htf1mUQy9VLPhbV8cvCNz0QkD
iRTSELlkwyrQoZZKvOHUGlvHoMDBY3gPRDcwMpaAMiOVoXe6E9KXc+JdJclqDcM5
YKS0sGlCQgnp2Ai8MyCzWCKnquvE4eZhg8XSlt/Z0E+t1wIDAQABo4IBDTCCAQkw
HQYDVR0OBBYEFLMRMsmSmITiyfjQO24DQsofDo48MIHJBgNVHSMEgcEwgb6AFCeO
ZxF0wyYdP+0zY7Ok2B0w5ejVoYGapIGXMIGUMQswCQYDVQQGEwJVUzEQMA4GA1UE
CAwHTW9udGFuYTEQMA4GA1UEBwwHQm96ZW1hbjERMA8GA1UECgwIU2F3dG9vdGgx
EzARBgNVBAsMCkNvbnN1bHRpbmcxGDAWBgNVBAMMD3d3dy53b2xmc3NsLmNvbTEf
MB0GCSqGSIb3DQEJARYQaW5mb0B3b2xmc3NsLmNvbYIJAIEyf7NkA+DiMA8GA1Ud
EwQIMAYBAf8CAQAwCwYDVR0PBAQDAgEGMA0GCSqGSIb3DQEBBQUAA4IBAQC8KPkB
6H5KztHhrX8gjRn+oHgcJOB4AQtHpmbUDg4y4YQFSSgBteito5XM7LqPCYPWIa67
gTbjtuQ6x22Sb2fBc7jr4/5KvIYET7oIPiNlAvMfrBsifqO85fZ5m7nF1B+5oUs+
uKIKEPM935WtPw/S78H1TbZWbzKolfhQdD/ZFircp1tNPpPFC5qebLi2p0PEIKDM
Fi9zKKHQ/s0yhfihvSaa6Z0M4yZG9FNMX37aQT6ALdQ07+N1/GLj9WY9lG+kjKAG
h767utzRPPGrH61+mZVVrr3lmGHlt9q61yyfa3ZizX/eC0xlmM/H8B4JyQHKhRyD
ngb0y046E6Jrz+OP
-----END CERTIFICATE-----
