Certificate:
    Data:
        Version: 3 (0x2)
        Serial Number: 107 (0x6b)
    Signature Algorithm: sha1WithRSAEncryption
        Issuer: C=US, ST=Washington, L=Seattle, O=wolfSSL Inc., OU=Engineering, CN=Server 127 CA/emailAddress=info@wolfssl.com
        Validity
            Not Before: Jul  4 04:39:23 2021 GMT
            Not After : Mar 30 04:39:23 2024 GMT
        Subject: C=US, ST=Washington, L=Seattle, O=wolfSSL Inc., OU=Engineering, CN=Server 127/emailAddress=info@wolfssl.com
        Subject Public Key Info:
            Public Key Algorithm: rsaEncryption
                Public-Key: (2048 bit)
                Modulus:
                    00:c0:95:08:e1:57:41:f2:71:6d:b7:d2:45:41:27:
                    01:65:c6:45:ae:f2:bc:24:30:b8:95:ce:2f:4e:d6:
                    f6:1c:88:bc:7c:9f:fb:a8:67:7f:fe:5c:9c:51:75:
                    f7:8a:ca:07:e7:35:2f:8f:e1:bd:7b:c0:2f:7c:ab:
                    64:a8:17:fc:ca:5d:7b:ba:e0:21:e5:72:2e:6f:2e:
                    86:d8:95:73:da:ac:1b:53:b9:5f:3f:d7:19:0d:25:
                    4f:e1:63:63:51:8b:0b:64:3f:ad:43:b8:a5:1c:5c:
                    34:b3:ae:00:a0:63:c5:f6:7f:0b:59:68:78:73:a6:
                    8c:18:a9:02:6d:af:c3:19:01:2e:b8:10:e3:c6:cc:
                    40:b4:69:a3:46:33:69:87:6e:c4:bb:17:a6:f3:e8:
                    dd:ad:73:bc:7b:2f:21:b5:fd:66:51:0c:bd:54:b3:
                    e1:6d:5f:1c:bc:23:73:d1:09:03:89:14:d2:10:b9:
                    64:c3:2a:d0:a1:96:4a:bc:e1:d4:1a:5b:c7:a0:c0:
                    c1:63:78:0f:44:37:30:32:96:80:32:23:95:a1:77:
                    ba:13:d2:97:73:e2:5d:25:c9:6a:0d:c3:39:60:a4:
                    b4:b0:69:42:42:09:e9:d8:08:bc:33:20:b3:58:22:
                    a7:aa:eb:c4:e1:e6:61:83:c5:d2:96:df:d9:d0:4f:
                    ad:d7
                Exponent: 65537 (0x10001)
        X509v3 extensions:
            X509v3 Subject Key Identifier: 
                B3:11:32:C9:92:98:84:E2:C9:F8:D0:3B:6E:03:42:CA:1F:0E:8E:3C
            X509v3 Authority Key Identifier: 
                keyid:B3:11:32:C9:92:98:84:E2:C9:F8:D0:3B:6E:03:42:CA:1F:0E:8E:3C
                DirName:/C=US/ST=Montana/L=Bozeman/O=Sawtooth/OU=Consulting/CN=www.wolfssl.com/emailAddress=info@wolfssl.com
                serial:6A

            X509v3 Basic Constraints: 
                CA:FALSE
    Signature Algorithm: sha1WithRSAEncryption
         b8:15:3d:1f:af:67:6e:ac:cb:5f:5e:51:d7:92:8b:75:5c:f1:
         65:77:62:bc:1c:72:25:f9:f6:7e:04:e8:fc:0f:d2:ab:6b:f9:
         5f:cb:02:9f:b2:95:71:3b:b4:c6:da:97:f2:2c:38:b1:19:eb:
         37:1f:cc:5f:fa:66:e1:54:dd:4f:31:87:54:29:bc:cf:53:65:
         17:e2:25:75:7b:72:f7:72:1e:79:ee:23:1a:40:97:d4:7a:39:
         92:b9:9b:a1:a9:0f:27:68:fc:d4:b4:2f:50:21:05:10:23:05:
         d3:c6:00:bd:c2:96:33:0c:9a:d0:d8:fe:a3:36:ec:ff:e1:48:
         51:39:7d:2c:37:ff:37:ae:74:15:98:53:1c:2f:6c:f3:27:58:
         04:fd:5b:2d:7b:5b:0a:14:27:86:22:ca:ac:a2:fa:bb:2e:b4:
         c4:f4:52:96:2c:79:3e:cf:90:4e:14:ff:4d:92:61:dd:54:5c:
         45:59:b5:e5:77:c6:4c:7b:a1:b7:89:f6:e4:d0:91:d6:15:00:
         66:98:b0:bd:ee:51:88:2f:25:ec:99:52:5b:87:23:1a:fa:55:
         a2:46:e2:f6:ee:f3:c2:ef:e0:79:e7:7b:30:a1:c8:29:73:4b:
         7b:3b:a5:8b:bd:ce:5f:3c:7b:02:c3:23:d3:5b:b2:b4:93:ca:
         9e:68:48:13
-----BEGIN CERTIFICATE-----
MIIEoDCCA4igAwIBAgIBazANBgkqhkiG9w0BAQUFADCBmjELMAkGA1UEBhMCVVMx
EzARBgNVBAgMCldhc2hpbmd0b24xEDAOBgNVBAcMB1NlYXR0bGUxFTATBgNVBAoM
DHdvbGZTU0wgSW5jLjEUMBIGA1UECwwLRW5naW5lZXJpbmcxFjAUBgNVBAMMDVNl
cnZlciAxMjcgQ0ExHzAdBgkqhkiG9w0BCQEWEGluZm9Ad29sZnNzbC5jb20wHhcN
MjEwNzA0MDQzOTIzWhcNMjQwMzMwMDQzOTIzWjCBlzELMAkGA1UEBhMCVVMxEzAR
BgNVBAgMCldhc2hpbmd0b24xEDAOBgNVBAcMB1NlYXR0bGUxFTATBgNVBAoMDHdv
bGZTU0wgSW5jLjEUMBIGA1UECwwLRW5naW5lZXJpbmcxEzARBgNVBAMMClNlcnZl
ciAxMjcxHzAdBgkqhkiG9w0BCQEWEGluZm9Ad29sZnNzbC5jb20wggEiMA0GCSqG
SIb3DQEBAQUAA4IBDwAwggEKAoIBAQDAlQjhV0HycW230kVBJwFlxkWu8rwkMLiV
zi9O1vYciLx8n/uoZ3/+XJxRdfeKygfnNS+P4b17wC98q2SoF/zKXXu64CHlci5v
LobYlXParBtTuV8/1xkNJU/hY2NRiwtkP61DuKUcXDSzrgCgY8X2fwtZaHhzpowY
qQJtr8MZAS64EOPGzEC0aaNGM2mHbsS7F6bz6N2tc7x7LyG1/WZRDL1Us+FtXxy8
I3PRCQOJFNIQuWTDKtChlkq84dQaW8egwMFjeA9ENzAyloAyI5Whd7oT0pdz4l0l
yWoNwzlgpLSwaUJCCenYCLwzILNYIqeq68Th5mGDxdKW39nQT63XAgMBAAGjgfEw
ge4wHQYDVR0OBBYEFLMRMsmSmITiyfjQO24DQsofDo48MIHBBgNVHSMEgbkwgbaA
FLMRMsmSmITiyfjQO24DQsofDo48oYGapIGXMIGUMQswCQYDVQQGEwJVUzEQMA4G
A1UECAwHTW9udGFuYTEQMA4GA1UEBwwHQm96ZW1hbjERMA8GA1UECgwIU2F3dG9v
dGgxEzARBgNVBAsMCkNvbnN1bHRpbmcxGDAWBgNVBAMMD3d3dy53b2xmc3NsLmNv
bTEfMB0GCSqGSIb3DQEJARYQaW5mb0B3b2xmc3NsLmNvbYIBajAJBgNVHRMEAjAA
MA0GCSqGSIb3DQEBBQUAA4IBAQC4FT0fr2durMtfXlHXkot1XPFld2K8HHIl+fZ+
BOj8D9Kra/lfywKfspVxO7TG2pfyLDixGes3H8xf+mbhVN1PMYdUKbzPU2UX4iV1
e3L3ch557iMaQJfUejmSuZuhqQ8naPzUtC9QIQUQIwXTxgC9wpYzDJrQ2P6jNuz/
4UhROX0sN/83rnQVmFMcL2zzJ1gE/Vste1sKFCeGIsqsovq7LrTE9FKWLHk+z5BO
FP9NkmHdVFxFWbXld8ZMe6G3ifbk0JHWFQBmmLC97lGILyXsmVJbhyMa+lWiRuL2
7vPC7+B553swocgpc0t7O6WLvc5fPHsCwyPTW7K0k8qeaEgT
-----END CERTIFICATE-----
Certificate:
    Data:
        Version: 3 (0x2)
        Serial Number: 106 (0x6a)
    Signature Algorithm: sha1WithRSAEncryption
        Issuer: C=US, ST=Montana, L=Bozeman, O=Sawtooth, OU=Consulting, CN=www.wolfssl.com/emailAddress=info@wolfssl.com
        Validity
            Not Before: Jul  4 04:39:23 2021 GMT
            Not After : Mar 30 04:39:23 2024 GMT
        Subject: C=US, ST=Washington, L=Seattle, O=wolfSSL Inc., OU=Engineering, CN=Server 127 CA/emailAddress=info@wolfssl.com
        Subject Public Key Info:
            Public Key Algorithm: rsaEncryption
                Public-Key: (2048 bit)
                Modulus:
                    00:c0:95:08:e1:57:41:f2:71:6d:b7:d2:45:41:27:
                    01:65:c6:45:ae:f2:bc:24:30:b8:95:ce:2f:4e:d6:
                    f6:1c:88:bc:7c:9f:fb:a8:67:7f:fe:5c:9c:51:75:
                    f7:8a:ca:07:e7:35:2f:8f:e1:bd:7b:c0:2f:7c:ab:
                    64:a8:17:fc:ca:5d:7b:ba:e0:21:e5:72:2e:6f:2e:
                    86:d8:95:73:da:ac:1b:53:b9:5f:3f:d7:19:0d:25:
                    4f:e1:63:63:51:8b:0b:64:3f:ad:43:b8:a5:1c:5c:
                    34:b3:ae:00:a0:63:c5:f6:7f:0b:59:68:78:73:a6:
                    8c:18:a9:02:6d:af:c3:19:01:2e:b8:10:e3:c6:cc:
                    40:b4:69:a3:46:33:69:87:6e:c4:bb:17:a6:f3:e8:
                    dd:ad:73:bc:7b:2f:21:b5:fd:66:51:0c:bd:54:b3:
                    e1:6d:5f:1c:bc:23:73:d1:09:03:89:14:d2:10:b9:
                    64:c3:2a:d0:a1:96:4a:bc:e1:d4:1a:5b:c7:a0:c0:
                    c1:63:78:0f:44:37:30:32:96:80:32:23:95:a1:77:
                    ba:13:d2:97:73:e2:5d:25:c9:6a:0d:c3:39:60:a4:
                    b4:b0:69:42:42:09:e9:d8:08:bc:33:20:b3:58:22:
                    a7:aa:eb:c4:e1:e6:61:83:c5:d2:96:df:d9:d0:4f:
                    ad:d7
                Exponent: 65537 (0x10001)
        X509v3 extensions:
            X509v3 Subject Key Identifier: 
                B3:11:32:C9:92:98:84:E2:C9:F8:D0:3B:6E:03:42:CA:1F:0E:8E:3C
            X509v3 Authority Key Identifier: 
                keyid:27:8E:67:11:74:C3:26:1D:3F:ED:33:63:B3:A4:D8:1D:30:E5:E8:D5
                DirName:/C=US/ST=Montana/L=Bozeman/O=Sawtooth/OU=Consulting/CN=www.wolfssl.com/emailAddress=info@wolfssl.com
                serial:81:32:7F:B3:64:03:E0:E2

            X509v3 Basic Constraints: 
                CA:TRUE, pathlen:127
            X509v3 Key Usage: 
                Certificate Sign, CRL Sign
    Signature Algorithm: sha1WithRSAEncryption
         6c:12:69:3c:4d:c9:55:d7:4e:e0:45:05:27:e2:a1:39:0a:8c:
         b4:f3:af:43:32:e5:02:9d:04:e4:3c:00:85:c3:b7:cb:b9:4b:
         d3:09:ec:17:fc:53:ce:3c:ed:fd:69:00:7e:0e:5b:7d:91:7f:
         96:08:76:c4:66:dc:d8:6e:c0:45:23:1c:af:33:e0:5a:92:12:
         ea:9d:90:bf:41:08:43:06:e3:3f:48:77:3a:37:8b:12:6a:24:
         de:55:17:51:f8:46:40:e7:ce:f2:f6:be:9b:a7:9b:4d:95:7b:
         e9:de:4f:68:e6:f2:84:e7:35:1b:91:fd:81:16:45:c1:54:97:
         21:86:0c:85:e7:6d:97:60:94:61:54:ce:47:e2:2f:62:fb:09:
         3d:11:85:7e:5a:dd:a7:48:a8:b8:95:48:88:d3:eb:f0:fb:39:
         49:a8:bd:98:a8:10:3f:de:9e:19:de:32:73:51:fd:69:bb:b8:
         7c:5c:0b:0f:72:c7:d9:67:bd:31:1e:ba:2b:73:af:51:b0:d2:
         89:12:0f:8e:ea:b6:17:8a:2d:86:d9:65:74:e4:46:ba:9f:5f:
         7f:2b:d4:e6:99:cb:4e:cf:61:cf:f3:5a:cf:c1:f0:27:1a:05:
         9f:e5:97:25:0d:9b:7e:8f:2b:9d:9c:cb:8d:5b:10:d0:67:31:
         8e:ed:69:08
-----BEGIN CERTIFICATE-----
MIIEujCCA6KgAwIBAgIBajANBgkqhkiG9w0BAQUFADCBlDELMAkGA1UEBhMCVVMx
EDAOBgNVBAgMB01vbnRhbmExEDAOBgNVBAcMB0JvemVtYW4xETAPBgNVBAoMCFNh
d3Rvb3RoMRMwEQYDVQQLDApDb25zdWx0aW5nMRgwFgYDVQQDDA93d3cud29sZnNz
bC5jb20xHzAdBgkqhkiG9w0BCQEWEGluZm9Ad29sZnNzbC5jb20wHhcNMjEwNzA0
MDQzOTIzWhcNMjQwMzMwMDQzOTIzWjCBmjELMAkGA1UEBhMCVVMxEzARBgNVBAgM
Cldhc2hpbmd0b24xEDAOBgNVBAcMB1NlYXR0bGUxFTATBgNVBAoMDHdvbGZTU0wg
SW5jLjEUMBIGA1UECwwLRW5naW5lZXJpbmcxFjAUBgNVBAMMDVNlcnZlciAxMjcg
Q0ExHzAdBgkqhkiG9w0BCQEWEGluZm9Ad29sZnNzbC5jb20wggEiMA0GCSqGSIb3
DQEBAQUAA4IBDwAwggEKAoIBAQDAlQjhV0HycW230kVBJwFlxkWu8rwkMLiVzi9O
1vYciLx8n/uoZ3/+XJxRdfeKygfnNS+P4b17wC98q2SoF/zKXXu64CHlci5vLobY
lXParBtTuV8/1xkNJU/hY2NRiwtkP61DuKUcXDSzrgCgY8X2fwtZaHhzpowYqQJt
r8MZAS64EOPGzEC0aaNGM2mHbsS7F6bz6N2tc7x7LyG1/WZRDL1Us+FtXxy8I3PR
CQOJFNIQuWTDKtChlkq84dQaW8egwMFjeA9ENzAyloAyI5Whd7oT0pdz4l0lyWoN
wzlgpLSwaUJCCenYCLwzILNYIqeq68Th5mGDxdKW39nQT63XAgMBAAGjggENMIIB
CTAdBgNVHQ4EFgQUsxEyyZKYhOLJ+NA7bgNCyh8OjjwwgckGA1UdIwSBwTCBvoAU
J45nEXTDJh0/7TNjs6TYHTDl6NWhgZqkgZcwgZQxCzAJBgNVBAYTAlVTMRAwDgYD
VQQIDAdNb250YW5hMRAwDgYDVQQHDAdCb3plbWFuMREwDwYDVQQKDAhTYXd0b290
aDETMBEGA1UECwwKQ29uc3VsdGluZzEYMBYGA1UEAwwPd3d3LndvbGZzc2wuY29t
MR8wHQYJKoZIhvcNAQkBFhBpbmZvQHdvbGZzc2wuY29tggkAgTJ/s2QD4OIwDwYD
VR0TBAgwBgEB/wIBfzALBgNVHQ8EBAMCAQYwDQYJKoZIhvcNAQEFBQADggEBAGwS
aTxNyVXXTuBFBSfioTkKjLTzr0My5QKdBOQ8AIXDt8u5S9MJ7Bf8U8487f1pAH4O
W32Rf5YIdsRm3NhuwEUjHK8z4FqSEuqdkL9BCEMG4z9Idzo3ixJqJN5VF1H4RkDn
zvL2vpunm02Ve+neT2jm8oTnNRuR/YEWRcFUlyGGDIXnbZdglGFUzkfiL2L7CT0R
hX5a3adIqLiVSIjT6/D7OUmovZioED/enhneMnNR/Wm7uHxcCw9yx9lnvTEeuitz
r1Gw0okSD47qtheKLYbZZXTkRrqfX38r1OaZy07PYc/zWs/B8CcaBZ/llyUNm36P
K52cy41bENBnMY7taQg=
-----END CERTIFICATE-----
