Certificate:
    Data:
        Version: 3 (0x2)
        Serial Number: 111 (0x6f)
    Signature Algorithm: sha1WithRSAEncryption
        Issuer: C=US, ST=Washington, L=Seattle, O=wolfSSL Inc., OU=Engineering, CN=Server 0-1 CA/emailAddress=info@wolfssl.com
        Validity
            Not Before: Jul  4 04:39:23 2021 GMT
            Not After : Mar 30 04:39:23 2024 GMT
        Subject: C=US, ST=Washington, L=Seattle, O=wolfSSL Inc., OU=Engineering, CN=Server 0-1/emailAddress=info@wolfssl.com
        Subject Public Key Info:
            Public Key Algorithm: rsaEncryption
                Public-Key: (2048 bit)
                Modulus:
                    00:c0:95:08:e1:57:41:f2:71:6d:b7:d2:45:41:27:
                    01:65:c6:45:ae:f2:bc:24:30:b8:95:ce:2f:4e:d6:
                    f6:1c:88:bc:7c:9f:fb:a8:67:7f:fe:5c:9c:51:75:
                    f7:8a:ca:07:e7:35:2f:8f:e1:bd:7b:c0:2f:7c:ab:
                    64:a8:17:fc:ca:5d:7b:ba:e0:21:e5:72:2e:6f:2e:
                    86:d8:95:73:da:ac:1b:53:b9:5f:3f:d7:19:0d:25:
                    4f:e1:63:63:51:8b:0b:64:3f:ad:43:b8:a5:1c:5c:
                    34:b3:ae:00:a0:63:c5:f6:7f:0b:59:68:78:73:a6:
                    8c:18:a9:02:6d:af:c3:19:01:2e:b8:10:e3:c6:cc:
                    40:b4:69:a3:46:33:69:87:6e:c4:bb:17:a6:f3:e8:
                    dd:ad:73:bc:7b:2f:21:b5:fd:66:51:0c:bd:54:b3:
                    e1:6d:5f:1c:bc:23:73:d1:09:03:89:14:d2:10:b9:
                    64:c3:2a:d0:a1:96:4a:bc:e1:d4:1a:5b:c7:a0:c0:
                    c1:63:78:0f:44:37:30:32:96:80:32:23:95:a1:77:
                    ba:13:d2:97:73:e2:5d:25:c9:6a:0d:c3:39:60:a4:
                    b4:b0:69:42:42:09:e9:d8:08:bc:33:20:b3:58:22:
                    a7:aa:eb:c4:e1:e6:61:83:c5:d2:96:df:d9:d0:4f:
                    ad:d7
                Exponent: 65537 (0x10001)
        X509v3 extensions:
            X509v3 Subject Key Identifier: 
                B3:11:32:C9:92:98:84:E2:C9:F8:D0:3B:6E:03:42:CA:1F:0E:8E:3C
            X509v3 Authority Key Identifier: 
                keyid:B3:11:32:C9:92:98:84:E2:C9:F8:D0:3B:6E:03:42:CA:1F:0E:8E:3C
                DirName:/C=US/ST=Washington/L=Seattle/O=wolfSSL Inc./OU=Engineering/CN=Server 0 CA/emailAddress=info@wolfssl.com
                serial:6E

            X509v3 Basic Constraints: 
                CA:FALSE
    Signature Algorithm: sha1WithRSAEncryption
         ae:f3:c0:5a:7d:29:c7:a1:06:67:61:e3:7f:5e:27:6f:69:d9:
         60:03:94:6e:3c:c0:7b:5c:84:1f:40:1d:3e:ba:69:d2:cd:f8:
         22:c2:7d:a1:05:2e:02:8d:d4:7f:bc:18:41:c1:8e:d9:63:23:
         a3:02:9b:a9:e7:37:63:48:4d:fb:13:2e:f0:b5:3b:ca:45:9c:
         6e:82:b9:a1:2b:83:6e:d1:11:bc:64:12:5f:e9:68:ec:46:76:
         c1:09:eb:9d:4c:71:f0:a6:3f:85:e0:a4:71:9f:dc:f9:ac:8f:
         af:46:5c:64:b1:ba:43:af:00:fa:d2:69:60:3f:b5:8f:57:c1:
         3c:58:aa:e6:8c:90:08:09:00:d3:db:bc:a9:3d:b6:ef:b8:49:
         dc:6b:02:48:65:9e:0a:27:3f:a7:82:d8:91:18:76:19:84:ab:
         e5:f8:a8:23:a2:93:c3:6f:e1:7f:d2:41:ac:ec:94:3e:b3:59:
         fe:0a:bf:d9:78:af:74:38:fb:87:a6:11:17:5e:b6:eb:99:c1:
         96:b2:50:41:fe:e7:c8:76:d1:ea:a9:c1:10:95:3a:60:e2:18:
         7f:42:e6:e2:bc:71:4d:67:f8:3d:53:50:49:00:25:3b:93:91:
         32:60:cb:c9:f2:f8:e4:31:1d:2f:15:53:5f:f8:f9:9f:ed:e0:
         b0:cd:7f:1b
-----BEGIN CERTIFICATE-----
MIIEpDCCA4ygAwIBAgIBbzANBgkqhkiG9w0BAQUFADCBmjELMAkGA1UEBhMCVVMx
EzARBgNVBAgMCldhc2hpbmd0b24xEDAOBgNVBAcMB1NlYXR0bGUxFTATBgNVBAoM
DHdvbGZTU0wgSW5jLjEUMBIGA1UECwwLRW5naW5lZXJpbmcxFjAUBgNVBAMMDVNl
cnZlciAwLTEgQ0ExHzAdBgkqhkiG9w0BCQEWEGluZm9Ad29sZnNzbC5jb20wHhcN
MjEwNzA0MDQzOTIzWhcNMjQwMzMwMDQzOTIzWjCBlzELMAkGA1UEBhMCVVMxEzAR
BgNVBAgMCldhc2hpbmd0b24xEDAOBgNVBAcMB1NlYXR0bGUxFTATBgNVBAoMDHdv
bGZTU0wgSW5jLjEUMBIGA1UECwwLRW5naW5lZXJpbmcxEzARBgNVBAMMClNlcnZl
ciAwLTExHzAdBgkqhkiG9w0BCQEWEGluZm9Ad29sZnNzbC5jb20wggEiMA0GCSqG
SIb3DQEBAQUAA4IBDwAwggEKAoIBAQDAlQjhV0HycW230kVBJwFlxkWu8rwkMLiV
zi9O1vYciLx8n/uoZ3/+XJxRdfeKygfnNS+P4b17wC98q2SoF/zKXXu64CHlci5v
LobYlXParBtTuV8/1xkNJU/hY2NRiwtkP61DuKUcXDSzrgCgY8X2fwtZaHhzpowY
qQJtr8MZAS64EOPGzEC0aaNGM2mHbsS7F6bz6N2tc7x7LyG1/WZRDL1Us+FtXxy8
I3PRCQOJFNIQuWTDKtChlkq84dQaW8egwMFjeA9ENzAyloAyI5Whd7oT0pdz4l0l
yWoNwzlgpLSwaUJCCenYCLwzILNYIqeq68Th5mGDxdKW39nQT63XAgMBAAGjgfUw
gfIwHQYDVR0OBBYEFLMRMsmSmITiyfjQO24DQsofDo48MIHFBgNVHSMEgb0wgbqA
FLMRMsmSmITiyfjQO24DQsofDo48oYGepIGbMIGYMQswCQYDVQQGEwJVUzETMBEG
A1UECAwKV2FzaGluZ3RvbjEQMA4GA1UEBwwHU2VhdHRsZTEVMBMGA1UECgwMd29s
ZlNTTCBJbmMuMRQwEgYDVQQLDAtFbmdpbmVlcmluZzEUMBIGA1UEAwwLU2VydmVy
IDAgQ0ExHzAdBgkqhkiG9w0BCQEWEGluZm9Ad29sZnNzbC5jb22CAW4wCQYDVR0T
BAIwADANBgkqhkiG9w0BAQUFAAOCAQEArvPAWn0px6EGZ2Hjf14nb2nZYAOUbjzA
e1yEH0AdPrpp0s34IsJ9oQUuAo3Uf7wYQcGO2WMjowKbqec3Y0hN+xMu8LU7ykWc
boK5oSuDbtERvGQSX+lo7EZ2wQnrnUxx8KY/heCkcZ/c+ayPr0ZcZLG6Q68A+tJp
YD+1j1fBPFiq5oyQCAkA09u8qT2277hJ3GsCSGWeCic/p4LYkRh2GYSr5fioI6KT
w2/hf9JBrOyUPrNZ/gq/2XivdDj7h6YRF16265nBlrJQQf7nyHbR6qnBEJU6YOIY
f0Lm4rxxTWf4PVNQSQAlO5ORMmDLyfL45DEdLxVTX/j5n+3gsM1/Gw==
-----END CERTIFICATE-----
