Certificate:
    Data:
        Version: 3 (0x2)
        Serial Number: 106 (0x6a)
    Signature Algorithm: sha1WithRSAEncryption
        Issuer: C=US, ST=Montana, L=Bozeman, O=Sawtooth, OU=Consulting, CN=www.wolfssl.com/emailAddress=info@wolfssl.com
        Validity
            Not Before: Jul  4 04:39:23 2021 GMT
            Not After : Mar 30 04:39:23 2024 GMT
        Subject: C=US, ST=Washington, L=Seattle, O=wolfSSL Inc., OU=Engineering, CN=Server 128 CA/emailAddress=info@wolfssl.com
        Subject Public Key Info:
            Public Key Algorithm: rsaEncryption
                Public-Key: (2048 bit)
                Modulus:
                    00:c0:95:08:e1:57:41:f2:71:6d:b7:d2:45:41:27:
                    01:65:c6:45:ae:f2:bc:24:30:b8:95:ce:2f:4e:d6:
                    f6:1c:88:bc:7c:9f:fb:a8:67:7f:fe:5c:9c:51:75:
                    f7:8a:ca:07:e7:35:2f:8f:e1:bd:7b:c0:2f:7c:ab:
                    64:a8:17:fc:ca:5d:7b:ba:e0:21:e5:72:2e:6f:2e:
                    86:d8:95:73:da:ac:1b:53:b9:5f:3f:d7:19:0d:25:
                    4f:e1:63:63:51:8b:0b:64:3f:ad:43:b8:a5:1c:5c:
                    34:b3:ae:00:a0:63:c5:f6:7f:0b:59:68:78:73:a6:
                    8c:18:a9:02:6d:af:c3:19:01:2e:b8:10:e3:c6:cc:
                    40:b4:69:a3:46:33:69:87:6e:c4:bb:17:a6:f3:e8:
                    dd:ad:73:bc:7b:2f:21:b5:fd:66:51:0c:bd:54:b3:
                    e1:6d:5f:1c:bc:23:73:d1:09:03:89:14:d2:10:b9:
                    64:c3:2a:d0:a1:96:4a:bc:e1:d4:1a:5b:c7:a0:c0:
                    c1:63:78:0f:44:37:30:32:96:80:32:23:95:a1:77:
                    ba:13:d2:97:73:e2:5d:25:c9:6a:0d:c3:39:60:a4:
                    b4:b0:69:42:42:09:e9:d8:08:bc:33:20:b3:58:22:
                    a7:aa:eb:c4:e1:e6:61:83:c5:d2:96:df:d9:d0:4f:
                    ad:d7
                Exponent: 65537 (0x10001)
        X509v3 extensions:
            X509v3 Subject Key Identifier: 
                B3:11:32:C9:92:98:84:E2:C9:F8:D0:3B:6E:03:42:CA:1F:0E:8E:3C
            X509v3 Authority Key Identifier: 
                keyid:27:8E:67:11:74:C3:26:1D:3F:ED:33:63:B3:A4:D8:1D:30:E5:E8:D5
                DirName:/C=US/ST=Montana/L=Bozeman/O=Sawtooth/OU=Consulting/CN=www.wolfssl.com/emailAddress=info@wolfssl.com
                serial:81:32:7F:B3:64:03:E0:E2

            X509v3 Basic Constraints: 
                CA:TRUE, pathlen:128
            X509v3 Key Usage: 
                Certificate Sign, CRL Sign
    Signature Algorithm: sha1WithRSAEncryption
         b9:76:2e:a6:d1:e6:cd:7a:69:0e:c2:6b:90:7b:8c:4f:2a:97:
         f0:bd:ee:46:65:12:4e:f3:1f:22:30:9e:f0:48:64:41:3e:7a:
         79:d5:c5:f7:c8:fa:9f:ae:63:9c:05:8a:93:81:73:f9:72:74:
         cf:fc:df:07:94:25:79:b3:36:35:46:e5:c0:9f:c4:18:d0:13:
         c4:7d:26:3f:2e:59:a6:d5:93:1e:2b:62:2e:fb:14:6f:8b:03:
         ad:38:83:98:d0:cb:fd:92:62:88:a9:1d:e3:f5:27:52:67:16:
         78:57:23:a4:a5:b9:12:2f:7b:07:ed:bd:40:ec:1c:dc:c1:64:
         59:a9:ad:81:3a:46:80:fd:b0:c1:dd:e0:50:24:a4:4c:0d:32:
         28:e1:2f:95:2b:1a:9d:62:38:7a:20:ad:1e:c6:3d:89:06:2c:
         90:f1:cd:7f:74:2d:07:8b:8d:69:df:c8:21:d8:b5:f4:83:49:
         ea:12:df:94:54:e7:d5:7b:84:78:7a:9a:a6:81:7a:4d:aa:7f:
         12:12:94:65:be:ea:69:b8:d5:b9:33:26:53:fc:3c:3e:77:29:
         d9:94:84:da:23:a5:34:0d:29:67:ec:de:db:0f:df:19:19:60:
         8b:87:f7:6b:af:87:b7:4b:13:78:13:05:f4:9b:db:01:19:10:
         51:06:a8:5b
-----BEGIN CERTIFICATE-----
MIIEuzCCA6OgAwIBAgIBajANBgkqhkiG9w0BAQUFADCBlDELMAkGA1UEBhMCVVMx
EDAOBgNVBAgMB01vbnRhbmExEDAOBgNVBAcMB0JvemVtYW4xETAPBgNVBAoMCFNh
d3Rvb3RoMRMwEQYDVQQLDApDb25zdWx0aW5nMRgwFgYDVQQDDA93d3cud29sZnNz
bC5jb20xHzAdBgkqhkiG9w0BCQEWEGluZm9Ad29sZnNzbC5jb20wHhcNMjEwNzA0
MDQzOTIzWhcNMjQwMzMwMDQzOTIzWjCBmjELMAkGA1UEBhMCVVMxEzARBgNVBAgM
Cldhc2hpbmd0b24xEDAOBgNVBAcMB1NlYXR0bGUxFTATBgNVBAoMDHdvbGZTU0wg
SW5jLjEUMBIGA1UECwwLRW5naW5lZXJpbmcxFjAUBgNVBAMMDVNlcnZlciAxMjgg
Q0ExHzAdBgkqhkiG9w0BCQEWEGluZm9Ad29sZnNzbC5jb20wggEiMA0GCSqGSIb3
DQEBAQUAA4IBDwAwggEKAoIBAQDAlQjhV0HycW230kVBJwFlxkWu8rwkMLiVzi9O
1vYciLx8n/uoZ3/+XJxRdfeKygfnNS+P4b17wC98q2SoF/zKXXu64CHlci5vLobY
lXParBtTuV8/1xkNJU/hY2NRiwtkP61DuKUcXDSzrgCgY8X2fwtZaHhzpowYqQJt
r8MZAS64EOPGzEC0aaNGM2mHbsS7F6bz6N2tc7x7LyG1/WZRDL1Us+FtXxy8I3PR
CQOJFNIQuWTDKtChlkq84dQaW8egwMFjeA9ENzAyloAyI5Whd7oT0pdz4l0lyWoN
wzlgpLSwaUJCCenYCLwzILNYIqeq68Th5mGDxdKW39nQT63XAgMBAAGjggEOMIIB
CjAdBgNVHQ4EFgQUsxEyyZKYhOLJ+NA7bgNCyh8OjjwwgckGA1UdIwSBwTCBvoAU
J45nEXTDJh0/7TNjs6TYHTDl6NWhgZqkgZcwgZQxCzAJBgNVBAYTAlVTMRAwDgYD
VQQIDAdNb250YW5hMRAwDgYDVQQHDAdCb3plbWFuMREwDwYDVQQKDAhTYXd0b290
aDETMBEGA1UECwwKQ29uc3VsdGluZzEYMBYGA1UEAwwPd3d3LndvbGZzc2wuY29t
MR8wHQYJKoZIhvcNAQkBFhBpbmZvQHdvbGZzc2wuY29tggkAgTJ/s2QD4OIwEAYD
VR0TBAkwBwEB/wICAIAwCwYDVR0PBAQDAgEGMA0GCSqGSIb3DQEBBQUAA4IBAQC5
di6m0ebNemkOwmuQe4xPKpfwve5GZRJO8x8iMJ7wSGRBPnp51cX3yPqfrmOcBYqT
gXP5cnTP/N8HlCV5szY1RuXAn8QY0BPEfSY/Llmm1ZMeK2Iu+xRviwOtOIOY0Mv9
kmKIqR3j9SdSZxZ4VyOkpbkSL3sH7b1A7BzcwWRZqa2BOkaA/bDB3eBQJKRMDTIo
4S+VKxqdYjh6IK0exj2JBiyQ8c1/dC0Hi41p38gh2LX0g0nqEt+UVOfVe4R4epqm
gXpNqn8SEpRlvuppuNW5MyZT/Dw+dynZlITaI6U0DSln7N7bD98ZGWCLh/drr4e3
SxN4EwX0m9sBGRBRBqhb
-----END CERTIFICATE-----
