Certificate:
    Data:
        Version: 3 (0x2)
        Serial Number: 1 (0x1)
    Signature Algorithm: sha256WithRSAEncryption
        Issuer: C=US, ST=Montana, L=Bozeman, O=Sawtooth, OU=Consulting_1024, CN=www.wolfssl.com/emailAddress=info@wolfssl.com
        Validity
            Not Before: Jul  4 04:39:21 2021 GMT
            Not After : Mar 30 04:39:21 2024 GMT
        Subject: C=US, ST=Montana, L=Bozeman, O=wolfSSL, OU=Support_1024, CN=www.wolfssl.com/emailAddress=info@wolfssl.com
        Subject Public Key Info:
            Public Key Algorithm: rsaEncryption
                Public-Key: (1024 bit)
                Modulus:
                    00:aa:3e:a5:9c:d3:17:49:65:43:de:d0:f3:4b:1c:
                    db:49:0c:fc:7a:65:05:6d:de:6a:c4:e4:73:2c:8a:
                    96:82:8f:23:a5:06:71:1c:06:3e:2f:92:8d:0b:29:
                    34:45:59:e9:a9:bc:61:d7:24:37:5d:b5:c4:37:8d:
                    ba:67:b2:ef:03:27:fa:c1:b4:cd:6b:00:66:b4:d6:
                    73:70:1f:08:3a:cc:77:ad:e9:f9:34:d4:f3:a0:2d:
                    a9:e7:58:a9:c0:61:84:b6:ec:3d:0a:ad:fd:5c:86:
                    73:aa:6b:47:d8:8b:2e:58:4b:69:12:82:26:55:e6:
                    14:bf:55:70:88:fe:f9:75:e1
                Exponent: 65537 (0x10001)
        X509v3 extensions:
            X509v3 Subject Key Identifier: 
                D9:3C:35:EA:74:0E:23:BE:9C:FC:FA:29:90:09:C1:E7:84:16:9F:7C
            X509v3 Authority Key Identifier: 
                keyid:D3:22:8F:28:2C:E0:05:EE:D3:ED:C3:71:3D:C9:B2:36:3A:1D:BF:A8
                DirName:/C=US/ST=Montana/L=Bozeman/O=Sawtooth/OU=Consulting_1024/CN=www.wolfssl.com/emailAddress=info@wolfssl.com
                serial:C5:5B:E1:35:A9:F9:1C:74

            X509v3 Basic Constraints: 
                CA:TRUE
    Signature Algorithm: sha256WithRSAEncryption
         45:fe:58:0b:0e:ca:fb:08:c1:6e:52:65:1b:aa:4b:4b:78:f4:
         2a:8b:ea:d7:89:30:47:d2:48:4f:f3:77:81:61:c0:9d:67:b1:
         85:50:ca:9c:45:c7:fe:45:43:e9:85:fe:18:b0:af:48:51:7e:
         b4:53:87:50:49:22:f5:9a:d4:f7:28:fc:18:98:e1:06:10:45:
         14:12:5a:65:02:5b:bd:55:98:80:9f:7d:90:c6:49:b5:ef:cc:
         b9:f8:a6:82:f0:be:93:b9:0e:68:d3:0f:85:02:fd:1a:ba:19:
         c0:fc:b9:a2:be:62:30:ea:29:6a:1e:af:48:dc:c5:ee:ca:d4:
         f1:a9
-----BEGIN CERTIFICATE-----
MIIDqTCCAxKgAwIBAgIBATANBgkqhkiG9w0BAQsFADCBmTELMAkGA1UEBhMCVVMx
EDAOBgNVBAgMB01vbnRhbmExEDAOBgNVBAcMB0JvemVtYW4xETAPBgNVBAoMCFNh
d3Rvb3RoMRgwFgYDVQQLDA9Db25zdWx0aW5nXzEwMjQxGDAWBgNVBAMMD3d3dy53
b2xmc3NsLmNvbTEfMB0GCSqGSIb3DQEJARYQaW5mb0B3b2xmc3NsLmNvbTAeFw0y
MTA3MDQwNDM5MjFaFw0yNDAzMzAwNDM5MjFaMIGVMQswCQYDVQQGEwJVUzEQMA4G
A1UECAwHTW9udGFuYTEQMA4GA1UEBwwHQm96ZW1hbjEQMA4GA1UECgwHd29sZlNT
TDEVMBMGA1UECwwMU3VwcG9ydF8xMDI0MRgwFgYDVQQDDA93d3cud29sZnNzbC5j
b20xHzAdBgkqhkiG9w0BCQEWEGluZm9Ad29sZnNzbC5jb20wgZ8wDQYJKoZIhvcN
AQEBBQADgY0AMIGJAoGBAKo+pZzTF0llQ97Q80sc20kM/HplBW3easTkcyyKloKP
I6UGcRwGPi+SjQspNEVZ6am8YdckN121xDeNumey7wMn+sG0zWsAZrTWc3AfCDrM
d63p+TTU86AtqedYqcBhhLbsPQqt/VyGc6prR9iLLlhLaRKCJlXmFL9VcIj++XXh
AgMBAAGjggEBMIH+MB0GA1UdDgQWBBTZPDXqdA4jvpz8+imQCcHnhBaffDCBzgYD
VR0jBIHGMIHDgBTTIo8oLOAF7tPtw3E9ybI2Oh2/qKGBn6SBnDCBmTELMAkGA1UE
BhMCVVMxEDAOBgNVBAgMB01vbnRhbmExEDAOBgNVBAcMB0JvemVtYW4xETAPBgNV
BAoMCFNhd3Rvb3RoMRgwFgYDVQQLDA9Db25zdWx0aW5nXzEwMjQxGDAWBgNVBAMM
D3d3dy53b2xmc3NsLmNvbTEfMB0GCSqGSIb3DQEJARYQaW5mb0B3b2xmc3NsLmNv
bYIJAMVb4TWp+Rx0MAwGA1UdEwQFMAMBAf8wDQYJKoZIhvcNAQELBQADgYEARf5Y
Cw7K+wjBblJlG6pLS3j0Kovq14kwR9JIT/N3gWHAnWexhVDKnEXH/kVD6YX+GLCv
SFF+tFOHUEki9ZrU9yj8GJjhBhBFFBJaZQJbvVWYgJ99kMZJte/MufimgvC+k7kO
aNMPhQL9GroZwPy5or5iMOopah6vSNzF7srU8ak=
-----END CERTIFICATE-----
Certificate:
    Data:
        Version: 3 (0x2)
        Serial Number:
            c5:5b:e1:35:a9:f9:1c:74
    Signature Algorithm: sha256WithRSAEncryption
        Issuer: C=US, ST=Montana, L=Bozeman, O=Sawtooth, OU=Consulting_1024, CN=www.wolfssl.com/emailAddress=info@wolfssl.com
        Validity
            Not Before: Jul  4 04:39:21 2021 GMT
            Not After : Mar 30 04:39:21 2024 GMT
        Subject: C=US, ST=Montana, L=Bozeman, O=Sawtooth, OU=Consulting_1024, CN=www.wolfssl.com/emailAddress=info@wolfssl.com
        Subject Public Key Info:
            Public Key Algorithm: rsaEncryption
                Public-Key: (1024 bit)
                Modulus:
                    00:cd:ac:dd:47:ec:be:b7:24:c3:63:1b:54:98:79:
                    e1:c7:31:16:59:d6:9d:77:9d:8d:e2:8b:ed:04:17:
                    b2:c6:eb:e4:9b:91:be:31:50:62:97:58:b5:7f:29:
                    de:b3:71:24:0b:bf:97:09:7f:26:dc:2d:ec:a8:2e:
                    b2:64:2b:7a:2b:35:19:2d:a2:80:cb:99:fd:94:71:
                    1b:23:8d:54:db:2e:62:8d:81:08:2d:f4:24:72:27:
                    6c:f9:c9:8e:db:4c:75:ba:9b:01:f8:3f:18:f4:e6:
                    7f:fb:57:94:92:cc:88:c4:b4:00:c2:aa:d4:e5:88:
                    18:b3:11:2f:73:c0:d6:29:09
                Exponent: 65537 (0x10001)
        X509v3 extensions:
            X509v3 Subject Key Identifier: 
                D3:22:8F:28:2C:E0:05:EE:D3:ED:C3:71:3D:C9:B2:36:3A:1D:BF:A8
            X509v3 Authority Key Identifier: 
                keyid:D3:22:8F:28:2C:E0:05:EE:D3:ED:C3:71:3D:C9:B2:36:3A:1D:BF:A8
                DirName:/C=US/ST=Montana/L=Bozeman/O=Sawtooth/OU=Consulting_1024/CN=www.wolfssl.com/emailAddress=info@wolfssl.com
                serial:C5:5B:E1:35:A9:F9:1C:74

            X509v3 Basic Constraints: 
                CA:TRUE
    Signature Algorithm: sha256WithRSAEncryption
         92:88:ec:65:d0:27:64:ac:b4:26:79:af:a0:20:14:41:12:09:
         80:2e:f7:2d:82:50:85:30:20:1c:22:70:81:91:bd:3b:20:8e:
         04:98:cc:61:16:b1:25:0f:aa:33:d3:04:75:26:79:8d:dd:2a:
         69:a6:8a:09:51:6f:10:bd:3f:e6:ce:9f:21:aa:f5:1a:91:4b:
         de:35:7e:98:f0:1b:9a:54:0e:0a:da:45:59:d4:6b:39:54:74:
         c7:59:3f:0a:17:d1:3f:12:d1:e4:5f:c3:ee:a2:c8:a2:07:a1:
         5a:0a:d9:ea:65:8a:cc:0b:39:8d:ca:ee:c6:1f:a9:fc:16:22:
         f4:1e
-----BEGIN CERTIFICATE-----
MIIDtTCCAx6gAwIBAgIJAMVb4TWp+Rx0MA0GCSqGSIb3DQEBCwUAMIGZMQswCQYD
VQQGEwJVUzEQMA4GA1UECAwHTW9udGFuYTEQMA4GA1UEBwwHQm96ZW1hbjERMA8G
A1UECgwIU2F3dG9vdGgxGDAWBgNVBAsMD0NvbnN1bHRpbmdfMTAyNDEYMBYGA1UE
AwwPd3d3LndvbGZzc2wuY29tMR8wHQYJKoZIhvcNAQkBFhBpbmZvQHdvbGZzc2wu
Y29tMB4XDTIxMDcwNDA0MzkyMVoXDTI0MDMzMDA0MzkyMVowgZkxCzAJBgNVBAYT
AlVTMRAwDgYDVQQIDAdNb250YW5hMRAwDgYDVQQHDAdCb3plbWFuMREwDwYDVQQK
DAhTYXd0b290aDEYMBYGA1UECwwPQ29uc3VsdGluZ18xMDI0MRgwFgYDVQQDDA93
d3cud29sZnNzbC5jb20xHzAdBgkqhkiG9w0BCQEWEGluZm9Ad29sZnNzbC5jb20w
gZ8wDQYJKoZIhvcNAQEBBQADgY0AMIGJAoGBAM2s3Ufsvrckw2MbVJh54ccxFlnW
nXedjeKL7QQXssbr5JuRvjFQYpdYtX8p3rNxJAu/lwl/Jtwt7KgusmQreis1GS2i
gMuZ/ZRxGyONVNsuYo2BCC30JHInbPnJjttMdbqbAfg/GPTmf/tXlJLMiMS0AMKq
1OWIGLMRL3PA1ikJAgMBAAGjggEBMIH+MB0GA1UdDgQWBBTTIo8oLOAF7tPtw3E9
ybI2Oh2/qDCBzgYDVR0jBIHGMIHDgBTTIo8oLOAF7tPtw3E9ybI2Oh2/qKGBn6SB
nDCBmTELMAkGA1UEBhMCVVMxEDAOBgNVBAgMB01vbnRhbmExEDAOBgNVBAcMB0Jv
emVtYW4xETAPBgNVBAoMCFNhd3Rvb3RoMRgwFgYDVQQLDA9Db25zdWx0aW5nXzEw
MjQxGDAWBgNVBAMMD3d3dy53b2xmc3NsLmNvbTEfMB0GCSqGSIb3DQEJARYQaW5m
b0B3b2xmc3NsLmNvbYIJAMVb4TWp+Rx0MAwGA1UdEwQFMAMBAf8wDQYJKoZIhvcN
AQELBQADgYEAkojsZdAnZKy0JnmvoCAUQRIJgC73LYJQhTAgHCJwgZG9OyCOBJjM
YRaxJQ+qM9MEdSZ5jd0qaaaKCVFvEL0/5s6fIar1GpFL3jV+mPAbmlQOCtpFWdRr
OVR0x1k/ChfRPxLR5F/D7qLIogehWgrZ6mWKzAs5jcruxh+p/BYi9B4=
-----END CERTIFICATE-----
