Certificate:
    Data:
        Version: 3 (0x2)
        Serial Number: 4 (0x4)
        Signature Algorithm: sha256WithRSAEncryption
        Issuer: C = US, ST = Washington, L = Seattle, O = wolfSSL, OU = Engineering, CN = wolfSSL root CA, emailAddress = info@wolfssl.com
        Validity
            Not Before: Feb  5 21:00:55 2023 GMT
            Not After : Nov  1 21:00:55 2025 GMT
        Subject: C = US, ST = Washington, L = Seattle, O = wolfSSL, OU = Engineering, CN = wolfSSL OCSP Responder, emailAddress = info@wolfssl.com
        Subject Public Key Info:
            Public Key Algorithm: rsaEncryption
                RSA Public-Key: (2048 bit)
                Modulus:
                    00:b8:ba:23:b4:f6:c3:7b:14:c3:a4:f5:1d:61:a1:
                    f5:1e:63:b9:85:23:34:50:6d:f8:7c:a2:8a:04:8b:
                    d5:75:5c:2d:f7:63:88:d1:07:7a:ea:0b:45:35:2b:
                    eb:1f:b1:22:b4:94:41:38:e2:9d:74:d6:8b:30:22:
                    10:51:c5:db:ca:3f:46:2b:fe:e5:5a:3f:41:74:67:
                    75:95:a9:94:d5:c3:ee:42:f8:8d:eb:92:95:e1:d9:
                    65:b7:43:c4:18:de:16:80:90:ce:24:35:21:c4:55:
                    ac:5a:51:e0:2e:2d:b3:0a:5a:4f:4a:73:31:50:ee:
                    4a:16:bd:39:8b:ad:05:48:87:b1:99:e2:10:a7:06:
                    72:67:ca:5c:d1:97:bd:c8:f1:76:f8:e0:4a:ec:bc:
                    93:f4:66:4c:28:71:d1:d8:66:03:b4:90:30:bb:17:
                    b0:fe:97:f5:1e:e8:c7:5d:9b:8b:11:19:12:3c:ab:
                    82:71:78:ff:ae:3f:32:b2:08:71:b2:1b:8c:27:ac:
                    11:b8:d8:43:49:cf:b0:70:b1:f0:8c:ae:da:24:87:
                    17:3b:d8:04:65:6c:00:76:50:ef:15:08:d7:b4:73:
                    68:26:14:87:95:c3:5f:6e:61:b8:87:84:fa:80:1a:
                    0a:8b:98:f3:e3:ff:4e:44:1c:65:74:7c:71:54:65:
                    e5:39
                Exponent: 65537 (0x10001)
        X509v3 extensions:
            X509v3 Basic Constraints: 
                CA:FALSE
            X509v3 Subject Key Identifier: 
                32:67:E1:B1:79:D2:81:FC:9F:23:0C:70:40:50:B5:46:56:B8:30:36
            X509v3 Authority Key Identifier: 
                keyid:73:B0:1C:A4:2F:82:CB:CF:47:A5:38:D7:B0:04:82:3A:7E:72:15:21
                DirName:/C=US/ST=Washington/L=Seattle/O=wolfSSL/OU=Engineering/CN=wolfSSL root CA/emailAddress=info@wolfssl.com
                serial:63

            X509v3 Extended Key Usage: 
                OCSP Signing
    Signature Algorithm: sha256WithRSAEncryption
         6f:50:b2:bd:86:07:b9:ff:7c:97:0b:0b:5d:b7:59:7b:04:e7:
         51:4d:e6:df:3b:37:a4:c6:a6:82:0b:d0:c1:e6:76:db:91:89:
         96:7b:34:cd:fe:e1:c7:7b:c5:91:98:26:34:85:96:48:af:5b:
         c7:c7:64:79:86:52:df:a7:6c:3b:4e:0b:48:74:39:6f:4e:31:
         fa:b7:b4:ae:b2:b4:77:56:63:f7:e9:97:0d:51:9f:65:bf:ff:
         85:2e:10:7b:36:e8:8e:bd:1a:3d:f8:b8:b5:bc:77:df:8d:63:
         c6:0e:71:2f:8f:35:bf:ad:da:95:da:b8:1e:c0:1a:22:9b:42:
         dc:a8:fa:ed:b2:8d:29:25:ec:aa:bb:43:35:05:50:d3:ac:da:
         6d:42:bb:6c:fb:ed:83:06:41:07:96:c3:c2:26:d8:5b:f7:06:
         94:c4:7e:db:24:2b:8b:26:38:1a:49:7d:44:d3:0b:e8:31:34:
         6c:15:88:d3:19:63:c6:7b:b1:3a:24:3c:a8:a6:97:db:37:8f:
         0c:d6:82:cf:ba:bc:ca:df:e8:43:71:82:41:67:22:0c:e6:df:
         43:f1:9b:1a:97:d2:c8:1a:b3:62:5f:4d:cc:e1:37:76:90:9e:
         3c:62:48:05:7f:83:25:19:07:65:39:34:10:9f:e8:3f:8f:ef:
         13:34:71:1b
-----BEGIN CERTIFICATE-----
MIIEvjCCA6agAwIBAgIBBDANBgkqhkiG9w0BAQsFADCBlzELMAkGA1UEBhMCVVMx
EzARBgNVBAgMCldhc2hpbmd0b24xEDAOBgNVBAcMB1NlYXR0bGUxEDAOBgNVBAoM
B3dvbGZTU0wxFDASBgNVBAsMC0VuZ2luZWVyaW5nMRgwFgYDVQQDDA93b2xmU1NM
IHJvb3QgQ0ExHzAdBgkqhkiG9w0BCQEWEGluZm9Ad29sZnNzbC5jb20wHhcNMjMw
MjA1MjEwMDU1WhcNMjUxMTAxMjEwMDU1WjCBnjELMAkGA1UEBhMCVVMxEzARBgNV
BAgMCldhc2hpbmd0b24xEDAOBgNVBAcMB1NlYXR0bGUxEDAOBgNVBAoMB3dvbGZT
U0wxFDASBgNVBAsMC0VuZ2luZWVyaW5nMR8wHQYDVQQDDBZ3b2xmU1NMIE9DU1Ag
UmVzcG9uZGVyMR8wHQYJKoZIhvcNAQkBFhBpbmZvQHdvbGZzc2wuY29tMIIBIjAN
BgkqhkiG9w0BAQEFAAOCAQ8AMIIBCgKCAQEAuLojtPbDexTDpPUdYaH1HmO5hSM0
UG34fKKKBIvVdVwt92OI0Qd66gtFNSvrH7EitJRBOOKddNaLMCIQUcXbyj9GK/7l
Wj9BdGd1lamU1cPuQviN65KV4dllt0PEGN4WgJDOJDUhxFWsWlHgLi2zClpPSnMx
UO5KFr05i60FSIexmeIQpwZyZ8pc0Ze9yPF2+OBK7LyT9GZMKHHR2GYDtJAwuxew
/pf1HujHXZuLERkSPKuCcXj/rj8ysghxshuMJ6wRuNhDSc+wcLHwjK7aJIcXO9gE
ZWwAdlDvFQjXtHNoJhSHlcNfbmG4h4T6gBoKi5jz4/9ORBxldHxxVGXlOQIDAQAB
o4IBCjCCAQYwCQYDVR0TBAIwADAdBgNVHQ4EFgQUMmfhsXnSgfyfIwxwQFC1Rla4
MDYwgcQGA1UdIwSBvDCBuYAUc7AcpC+Cy89HpTjXsASCOn5yFSGhgZ2kgZowgZcx
CzAJBgNVBAYTAlVTMRMwEQYDVQQIDApXYXNoaW5ndG9uMRAwDgYDVQQHDAdTZWF0
dGxlMRAwDgYDVQQKDAd3b2xmU1NMMRQwEgYDVQQLDAtFbmdpbmVlcmluZzEYMBYG
A1UEAwwPd29sZlNTTCByb290IENBMR8wHQYJKoZIhvcNAQkBFhBpbmZvQHdvbGZz
c2wuY29tggFjMBMGA1UdJQQMMAoGCCsGAQUFBwMJMA0GCSqGSIb3DQEBCwUAA4IB
AQBvULK9hge5/3yXCwtdt1l7BOdRTebfOzekxqaCC9DB5nbbkYmWezTN/uHHe8WR
mCY0hZZIr1vHx2R5hlLfp2w7TgtIdDlvTjH6t7SusrR3VmP36ZcNUZ9lv/+FLhB7
NuiOvRo9+Li1vHffjWPGDnEvjzW/rdqV2rgewBoim0LcqPrtso0pJeyqu0M1BVDT
rNptQrts++2DBkEHlsPCJthb9waUxH7bJCuLJjgaSX1E0wvoMTRsFYjTGWPGe7E6
JDyoppfbN48M1oLPurzK3+hDcYJBZyIM5t9D8Zsal9LIGrNiX03M4Td2kJ48YkgF
f4MlGQdlOTQQn+g/j+8TNHEb
-----END CERTIFICATE-----
Certificate:
    Data:
        Version: 3 (0x2)
        Serial Number: 99 (0x63)
        Signature Algorithm: sha256WithRSAEncryption
        Issuer: C = US, ST = Washington, L = Seattle, O = wolfSSL, OU = Engineering, CN = wolfSSL root CA, emailAddress = info@wolfssl.com
        Validity
            Not Before: Feb  5 21:00:55 2023 GMT
            Not After : Nov  1 21:00:55 2025 GMT
        Subject: C = US, ST = Washington, L = Seattle, O = wolfSSL, OU = Engineering, CN = wolfSSL root CA, emailAddress = info@wolfssl.com
        Subject Public Key Info:
            Public Key Algorithm: rsaEncryption
                RSA Public-Key: (2048 bit)
                Modulus:
                    00:ab:2c:b4:2f:1d:06:09:ef:4e:29:86:84:7e:cc:
                    bf:a6:79:7c:f0:c0:c1:64:25:8c:75:b7:10:05:ca:
                    48:27:0c:0e:32:1c:b0:fe:99:85:39:b6:b9:a2:f7:
                    27:ff:6d:3c:8c:16:73:29:21:7f:8b:a6:54:71:90:
                    ad:cc:05:b9:9f:15:c7:0a:3f:5f:69:f4:0a:5f:8c:
                    71:b5:2c:bf:66:e2:03:9a:32:f4:d2:ec:2a:89:4b:
                    f9:35:88:14:33:47:4e:2e:05:79:01:ed:64:36:76:
                    b9:f8:85:cd:01:88:ac:c5:b2:b1:59:b8:cd:5a:f4:
                    09:09:38:9b:da:5a:cf:ce:78:99:1f:49:3d:41:d6:
                    06:7c:52:99:c8:97:d1:b3:80:3a:a2:4f:36:c4:c5:
                    96:30:77:31:38:c8:70:cc:e1:67:06:b3:2b:2f:93:
                    b5:69:cf:83:7e:88:53:9b:0f:46:21:4c:d6:05:36:
                    44:99:60:68:47:e5:32:01:12:d4:10:73:ae:9a:34:
                    94:fa:6e:b8:58:4f:7b:5b:8a:92:97:ad:fd:97:b9:
                    75:ca:c2:d4:45:7d:17:6b:cd:2f:f3:63:7a:0e:30:
                    b5:0b:a9:d9:a6:7c:74:60:9d:cc:09:03:43:f1:0f:
                    90:d3:b7:fe:6c:9f:d9:cd:78:4b:15:ae:8c:5b:f9:
                    99:81
                Exponent: 65537 (0x10001)
        X509v3 extensions:
            X509v3 Basic Constraints: 
                CA:TRUE
            X509v3 Subject Key Identifier: 
                73:B0:1C:A4:2F:82:CB:CF:47:A5:38:D7:B0:04:82:3A:7E:72:15:21
            X509v3 Authority Key Identifier: 
                keyid:73:B0:1C:A4:2F:82:CB:CF:47:A5:38:D7:B0:04:82:3A:7E:72:15:21
                DirName:/C=US/ST=Washington/L=Seattle/O=wolfSSL/OU=Engineering/CN=wolfSSL root CA/emailAddress=info@wolfssl.com
                serial:63

            X509v3 Key Usage: 
                Certificate Sign, CRL Sign
            Authority Information Access: 
                OCSP - URI:http://127.0.0.1:22220

    Signature Algorithm: sha256WithRSAEncryption
         a2:d9:fb:5f:18:5c:07:91:b4:e2:c8:8d:2c:54:34:c0:ec:d0:
         2e:04:77:f3:dc:d9:1b:53:4e:90:62:c4:7b:41:90:2c:1f:9b:
         8f:41:0b:12:14:4a:d0:d6:1a:4c:d4:d2:30:08:5c:a7:f6:a9:
         1b:49:23:4f:63:ea:6b:4d:e4:4c:55:fc:e2:27:65:de:16:1c:
         9f:30:bb:16:c8:2b:28:ad:26:91:40:bc:51:35:72:5f:54:bb:
         6f:c1:a2:ad:e0:82:a0:9d:d1:30:ba:b6:1c:9d:84:a1:8f:43:
         60:81:ef:53:76:6b:90:e8:fb:85:69:98:10:ba:13:52:44:11:
         1c:67:48:e0:27:30:82:da:86:89:58:43:ea:0b:c8:05:77:29:
         72:f1:6e:29:93:d8:79:1a:c6:80:80:31:e5:45:78:94:b9:98:
         4e:cf:64:7b:b5:73:40:60:09:5e:39:d6:8c:d8:6e:74:53:e3:
         e7:00:c5:de:7c:46:91:11:e7:22:86:b3:c2:3c:cd:3f:14:9b:
         5d:7b:d9:22:af:0f:13:93:c1:27:a8:95:20:f7:bb:9f:9b:f8:
         e2:f7:32:23:2f:3d:2f:96:67:b6:ec:c9:95:2b:12:e5:cc:a9:
         99:83:b2:0b:6d:3c:21:4f:41:3d:76:49:45:12:e4:d8:7d:2e:
         da:23:a2:b8
-----BEGIN CERTIFICATE-----
MIIE5jCCA86gAwIBAgIBYzANBgkqhkiG9w0BAQsFADCBlzELMAkGA1UEBhMCVVMx
EzARBgNVBAgMCldhc2hpbmd0b24xEDAOBgNVBAcMB1NlYXR0bGUxEDAOBgNVBAoM
B3dvbGZTU0wxFDASBgNVBAsMC0VuZ2luZWVyaW5nMRgwFgYDVQQDDA93b2xmU1NM
IHJvb3QgQ0ExHzAdBgkqhkiG9w0BCQEWEGluZm9Ad29sZnNzbC5jb20wHhcNMjMw
MjA1MjEwMDU1WhcNMjUxMTAxMjEwMDU1WjCBlzELMAkGA1UEBhMCVVMxEzARBgNV
BAgMCldhc2hpbmd0b24xEDAOBgNVBAcMB1NlYXR0bGUxEDAOBgNVBAoMB3dvbGZT
U0wxFDASBgNVBAsMC0VuZ2luZWVyaW5nMRgwFgYDVQQDDA93b2xmU1NMIHJvb3Qg
Q0ExHzAdBgkqhkiG9w0BCQEWEGluZm9Ad29sZnNzbC5jb20wggEiMA0GCSqGSIb3
DQEBAQUAA4IBDwAwggEKAoIBAQCrLLQvHQYJ704phoR+zL+meXzwwMFkJYx1txAF
ykgnDA4yHLD+mYU5trmi9yf/bTyMFnMpIX+LplRxkK3MBbmfFccKP19p9ApfjHG1
LL9m4gOaMvTS7CqJS/k1iBQzR04uBXkB7WQ2drn4hc0BiKzFsrFZuM1a9AkJOJva
Ws/OeJkfST1B1gZ8UpnIl9GzgDqiTzbExZYwdzE4yHDM4WcGsysvk7Vpz4N+iFOb
D0YhTNYFNkSZYGhH5TIBEtQQc66aNJT6brhYT3tbipKXrf2XuXXKwtRFfRdrzS/z
Y3oOMLULqdmmfHRgncwJA0PxD5DTt/5sn9nNeEsVroxb+ZmBAgMBAAGjggE5MIIB
NTAMBgNVHRMEBTADAQH/MB0GA1UdDgQWBBRzsBykL4LLz0elONewBII6fnIVITCB
xAYDVR0jBIG8MIG5gBRzsBykL4LLz0elONewBII6fnIVIaGBnaSBmjCBlzELMAkG
A1UEBhMCVVMxEzARBgNVBAgMCldhc2hpbmd0b24xEDAOBgNVBAcMB1NlYXR0bGUx
EDAOBgNVBAoMB3dvbGZTU0wxFDASBgNVBAsMC0VuZ2luZWVyaW5nMRgwFgYDVQQD
DA93b2xmU1NMIHJvb3QgQ0ExHzAdBgkqhkiG9w0BCQEWEGluZm9Ad29sZnNzbC5j
b22CAWMwCwYDVR0PBAQDAgEGMDIGCCsGAQUFBwEBBCYwJDAiBggrBgEFBQcwAYYW
aHR0cDovLzEyNy4wLjAuMToyMjIyMDANBgkqhkiG9w0BAQsFAAOCAQEAotn7Xxhc
B5G04siNLFQ0wOzQLgR389zZG1NOkGLEe0GQLB+bj0ELEhRK0NYaTNTSMAhcp/ap
G0kjT2Pqa03kTFX84idl3hYcnzC7FsgrKK0mkUC8UTVyX1S7b8GireCCoJ3RMLq2
HJ2EoY9DYIHvU3ZrkOj7hWmYELoTUkQRHGdI4CcwgtqGiVhD6gvIBXcpcvFuKZPY
eRrGgIAx5UV4lLmYTs9ke7VzQGAJXjnWjNhudFPj5wDF3nxGkRHnIoazwjzNPxSb
XXvZIq8PE5PBJ6iVIPe7n5v44vcyIy89L5ZntuzJlSsS5cypmYOyC208IU9BPXZJ
RRLk2H0u2iOiuA==
-----END CERTIFICATE-----
