Certificate:
    Data:
        Version: 3 (0x2)
        Serial Number: 8 (0x8)
    Signature Algorithm: sha256WithRSAEncryption
        Issuer: C=US, ST=Washington, L=Seattle, O=wolfSSL, OU=Engineering, CN=wolfSSL intermediate CA 2/emailAddress=info@wolfssl.com
        Validity
            Not Before: Jul  4 04:39:22 2021 GMT
            Not After : Mar 30 04:39:22 2024 GMT
        Subject: C=US, ST=Washington, L=Seattle, O=wolfSSL, OU=Engineering, CN=www4.wolfssl.com/emailAddress=info@wolfssl.com
        Subject Public Key Info:
            Public Key Algorithm: rsaEncryption
                Public-Key: (2048 bit)
                Modulus:
                    00:9c:ef:8a:7e:84:4d:58:7a:b1:91:c8:cb:68:76:
                    df:fe:0a:29:fe:7f:74:35:d5:c3:fd:43:be:d7:89:
                    fc:59:51:5a:30:e9:50:14:84:24:d0:c8:72:7d:d6:
                    75:42:12:8b:16:ad:5a:e8:d3:84:a7:07:2b:9e:12:
                    ef:6a:cd:3e:83:14:b7:26:a2:53:7b:3d:6c:96:7f:
                    9c:c5:09:08:0e:55:08:19:b7:5a:1c:46:32:09:da:
                    44:b2:ca:fd:4a:e4:be:d0:02:c9:c9:48:03:13:a5:
                    ad:3e:7b:21:cf:05:3a:b9:25:f5:c1:b8:4e:4d:eb:
                    33:99:d1:50:4a:eb:f7:1a:08:6b:d0:5c:9d:48:eb:
                    98:fd:dc:89:0f:aa:74:d3:7f:03:1b:59:65:f5:86:
                    e1:d9:53:ab:e4:53:ab:85:3c:79:8b:45:39:7b:fd:
                    e9:a2:10:b9:fa:92:71:0e:68:36:66:6e:8c:fb:e2:
                    8a:5d:5f:72:66:b0:47:2d:c5:b4:93:ce:61:7f:90:
                    1a:64:02:dd:57:9d:f1:f1:e8:75:21:e2:af:44:e3:
                    96:f5:1c:e3:73:87:dc:b7:05:12:ad:a5:8f:0c:d8:
                    2c:b4:90:b3:d9:e7:13:e1:e5:5e:4c:9b:24:89:08:
                    07:9e:aa:6b:9f:64:01:da:ec:95:05:45:84:d9:a9:
                    db:c7
                Exponent: 65537 (0x10001)
        X509v3 extensions:
            X509v3 Basic Constraints: 
                CA:FALSE
            X509v3 Subject Key Identifier: 
                9A:D6:EF:4E:0A:7B:8B:74:E6:14:EC:35:9A:05:2A:94:68:09:61:58
            X509v3 Authority Key Identifier: 
                keyid:05:D1:BA:86:00:A2:EE:2A:05:24:B7:11:AD:2D:60:F1:90:14:8F:17
                DirName:/C=US/ST=Washington/L=Seattle/O=wolfSSL/OU=Engineering/CN=wolfSSL root CA/emailAddress=info@wolfssl.com
                serial:02

            X509v3 Key Usage: 
                Digital Signature, Non Repudiation, Key Encipherment
            Authority Information Access: 
                OCSP - URI:http://127.0.0.1:22222

    Signature Algorithm: sha256WithRSAEncryption
         bb:6a:b0:ac:0c:5e:a0:cb:7a:98:43:28:f2:d4:b1:84:85:4f:
         a1:27:4f:9f:78:fc:61:c8:1b:e4:e8:e5:cc:73:2d:ca:9f:23:
         e3:08:6c:ab:47:dc:0b:fa:5d:e2:75:4f:c3:c7:cb:13:fc:c6:
         f1:bb:dd:5f:f6:c4:52:9a:d0:84:88:ed:af:0f:61:35:86:f7:
         bf:6c:fd:55:a9:8a:ec:f9:25:bf:8a:b5:6e:32:ac:31:df:a5:
         88:22:fa:a0:10:a9:d2:29:e2:37:80:48:36:1a:57:d8:b4:d3:
         c3:15:54:8f:2f:b0:70:2a:7d:6b:26:98:9a:be:53:7d:3d:ed:
         de:93:06:96:cb:5a:3d:c0:36:c9:bf:b7:c5:2b:4f:a8:b4:9d:
         fb:90:22:00:18:8b:a3:92:ab:9b:ca:33:9f:0c:77:f5:7c:d6:
         64:5e:cc:07:57:41:04:ee:ff:d2:cc:d3:04:fa:b7:d8:a2:47:
         9c:93:c0:17:f4:eb:b1:f5:b8:e2:ae:cf:c8:64:41:5d:3e:00:
         8c:5c:12:70:3e:15:72:13:42:b7:9f:f5:61:b1:d6:25:fc:ea:
         70:ba:38:11:31:1a:f0:f2:7f:fe:fe:e1:1a:ad:25:49:0c:00:
         b3:3d:f5:d0:f8:77:7d:6e:75:7f:49:da:9c:5f:e6:30:8c:4c:
         cb:24:6f:ff
-----BEGIN CERTIFICATE-----
MIIE7jCCA9agAwIBAgIBCDANBgkqhkiG9w0BAQsFADCBoTELMAkGA1UEBhMCVVMx
EzARBgNVBAgMCldhc2hpbmd0b24xEDAOBgNVBAcMB1NlYXR0bGUxEDAOBgNVBAoM
B3dvbGZTU0wxFDASBgNVBAsMC0VuZ2luZWVyaW5nMSIwIAYDVQQDDBl3b2xmU1NM
IGludGVybWVkaWF0ZSBDQSAyMR8wHQYJKoZIhvcNAQkBFhBpbmZvQHdvbGZzc2wu
Y29tMB4XDTIxMDcwNDA0MzkyMloXDTI0MDMzMDA0MzkyMlowgZgxCzAJBgNVBAYT
AlVTMRMwEQYDVQQIDApXYXNoaW5ndG9uMRAwDgYDVQQHDAdTZWF0dGxlMRAwDgYD
VQQKDAd3b2xmU1NMMRQwEgYDVQQLDAtFbmdpbmVlcmluZzEZMBcGA1UEAwwQd3d3
NC53b2xmc3NsLmNvbTEfMB0GCSqGSIb3DQEJARYQaW5mb0B3b2xmc3NsLmNvbTCC
ASIwDQYJKoZIhvcNAQEBBQADggEPADCCAQoCggEBAJzvin6ETVh6sZHIy2h23/4K
Kf5/dDXVw/1DvteJ/FlRWjDpUBSEJNDIcn3WdUISixatWujThKcHK54S72rNPoMU
tyaiU3s9bJZ/nMUJCA5VCBm3WhxGMgnaRLLK/UrkvtACyclIAxOlrT57Ic8FOrkl
9cG4Tk3rM5nRUErr9xoIa9BcnUjrmP3ciQ+qdNN/AxtZZfWG4dlTq+RTq4U8eYtF
OXv96aIQufqScQ5oNmZujPviil1fcmawRy3FtJPOYX+QGmQC3Ved8fHodSHir0Tj
lvUc43OH3LcFEq2ljwzYLLSQs9nnE+HlXkybJIkIB56qa59kAdrslQVFhNmp28cC
AwEAAaOCATYwggEyMAkGA1UdEwQCMAAwHQYDVR0OBBYEFJrW704Ke4t05hTsNZoF
KpRoCWFYMIHEBgNVHSMEgbwwgbmAFAXRuoYAou4qBSS3Ea0tYPGQFI8XoYGdpIGa
MIGXMQswCQYDVQQGEwJVUzETMBEGA1UECAwKV2FzaGluZ3RvbjEQMA4GA1UEBwwH
U2VhdHRsZTEQMA4GA1UECgwHd29sZlNTTDEUMBIGA1UECwwLRW5naW5lZXJpbmcx
GDAWBgNVBAMMD3dvbGZTU0wgcm9vdCBDQTEfMB0GCSqGSIb3DQEJARYQaW5mb0B3
b2xmc3NsLmNvbYIBAjALBgNVHQ8EBAMCBeAwMgYIKwYBBQUHAQEEJjAkMCIGCCsG
AQUFBzABhhZodHRwOi8vMTI3LjAuMC4xOjIyMjIyMA0GCSqGSIb3DQEBCwUAA4IB
AQC7arCsDF6gy3qYQyjy1LGEhU+hJ0+fePxhyBvk6OXMcy3KnyPjCGyrR9wL+l3i
dU/Dx8sT/Mbxu91f9sRSmtCEiO2vD2E1hve/bP1VqYrs+SW/irVuMqwx36WIIvqg
EKnSKeI3gEg2GlfYtNPDFVSPL7BwKn1rJpiavlN9Pe3ekwaWy1o9wDbJv7fFK0+o
tJ37kCIAGIujkqubyjOfDHf1fNZkXswHV0EE7v/SzNME+rfYokeck8AX9Oux9bji
rs/IZEFdPgCMXBJwPhVyE0K3n/VhsdYl/OpwujgRMRrw8n/+/uEarSVJDACzPfXQ
+Hd9bnV/SdqcX+YwjEzLJG//
-----END CERTIFICATE-----
Certificate:
    Data:
        Version: 3 (0x2)
        Serial Number: 2 (0x2)
    Signature Algorithm: sha256WithRSAEncryption
        Issuer: C=US, ST=Washington, L=Seattle, O=wolfSSL, OU=Engineering, CN=wolfSSL root CA/emailAddress=info@wolfssl.com
        Validity
            Not Before: Jul  4 04:39:22 2021 GMT
            Not After : Mar 30 04:39:22 2024 GMT
        Subject: C=US, ST=Washington, L=Seattle, O=wolfSSL, OU=Engineering, CN=wolfSSL intermediate CA 2/emailAddress=info@wolfssl.com
        Subject Public Key Info:
            Public Key Algorithm: rsaEncryption
                Public-Key: (2048 bit)
                Modulus:
                    00:d0:20:3c:35:19:6f:2c:44:b4:7e:42:c7:75:b4:
                    6a:2b:a9:23:85:bf:87:b4:ee:ca:d7:4b:1f:31:d7:
                    11:02:a1:ab:58:3d:fb:dc:51:ca:3a:1d:1f:95:a6:
                    56:82:f7:8f:ff:6b:50:bb:ea:10:e1:47:1d:35:77:
                    2e:4b:28:c5:53:46:23:2b:82:fd:5a:d3:f4:21:db:
                    0e:e0:f2:76:33:47:b3:00:be:3a:b1:23:98:53:eb:
                    ea:a0:de:1b:cc:05:4e:ee:63:a8:2c:93:24:d6:98:
                    78:74:03:e4:c8:89:43:61:f1:25:b8:cd:3b:87:c1:
                    31:25:fd:ba:4c:fc:29:94:45:9e:69:d7:67:0a:8a:
                    8e:d5:52:93:30:a2:0e:dd:6a:1c:b0:94:77:db:52:
                    52:b7:89:21:be:96:75:24:cb:e9:49:df:81:9d:9d:
                    f8:55:7d:01:2a:eb:78:03:12:e2:20:6e:db:63:35:
                    cd:a1:96:f0:f8:8c:20:35:69:87:01:ca:b4:54:36:
                    a0:15:e0:23:7d:b9:fb:be:99:05:50:f0:bf:ec:7f:
                    12:e1:3d:75:15:4e:c8:c2:30:e6:8b:fe:e5:8b:55:
                    f8:44:5e:e5:e3:56:e0:66:2d:6f:42:5a:45:6b:96:
                    aa:c7:5d:41:08:5f:ce:d7:dc:9f:20:e4:46:78:ff:
                    d9:99
                Exponent: 65537 (0x10001)
        X509v3 extensions:
            X509v3 Basic Constraints: 
                CA:TRUE
            X509v3 Subject Key Identifier: 
                05:D1:BA:86:00:A2:EE:2A:05:24:B7:11:AD:2D:60:F1:90:14:8F:17
            X509v3 Authority Key Identifier: 
                keyid:73:B0:1C:A4:2F:82:CB:CF:47:A5:38:D7:B0:04:82:3A:7E:72:15:21
                DirName:/C=US/ST=Washington/L=Seattle/O=wolfSSL/OU=Engineering/CN=wolfSSL root CA/emailAddress=info@wolfssl.com
                serial:63

            X509v3 Key Usage: 
                Certificate Sign, CRL Sign
            Authority Information Access: 
                OCSP - URI:http://127.0.0.1:22220

    Signature Algorithm: sha256WithRSAEncryption
         70:4e:a1:74:f3:64:a7:c0:f3:22:ff:e5:d7:da:59:2a:f4:0f:
         35:ad:3d:ea:f9:06:e5:fc:2d:e8:d5:02:17:1d:e1:9d:9e:3f:
         01:b3:94:4f:d7:6d:73:e8:f1:92:97:2f:74:d5:e1:e5:18:80:
         07:84:4b:84:e1:71:44:5d:5d:63:f0:a3:20:ad:a0:96:aa:5d:
         40:05:66:eb:8f:11:cc:d6:55:b9:09:4a:de:bf:50:86:54:b5:
         d0:e6:98:ec:2d:62:95:b0:15:c6:5f:a9:37:7a:20:c6:52:ec:
         e1:aa:c1:27:bb:02:8a:22:c6:72:60:23:59:ae:e4:8c:50:94:
         e9:f7:b3:00:df:aa:1f:f4:6a:0f:ca:f8:c1:42:e1:47:70:37:
         01:18:f5:6c:c3:3f:bf:7a:5e:74:22:78:da:10:27:33:15:25:
         f8:e6:e8:c8:43:cd:96:7e:48:f7:84:cc:2b:93:ec:44:50:3b:
         58:e6:7d:34:97:ff:e4:e1:60:b2:ad:eb:02:0d:94:f7:48:d2:
         ff:3e:55:ab:b8:5d:bb:7e:df:3f:7d:b3:f3:27:68:f9:68:b0:
         f4:8d:b7:a1:12:e5:e5:d0:d6:21:86:0b:8d:96:26:c1:3f:02:
         30:74:ce:c8:f4:cd:a4:1a:70:40:70:db:bb:26:0d:3a:f7:7f:
         87:97:98:b2
-----BEGIN CERTIFICATE-----
MIIE8DCCA9igAwIBAgIBAjANBgkqhkiG9w0BAQsFADCBlzELMAkGA1UEBhMCVVMx
EzARBgNVBAgMCldhc2hpbmd0b24xEDAOBgNVBAcMB1NlYXR0bGUxEDAOBgNVBAoM
B3dvbGZTU0wxFDASBgNVBAsMC0VuZ2luZWVyaW5nMRgwFgYDVQQDDA93b2xmU1NM
IHJvb3QgQ0ExHzAdBgkqhkiG9w0BCQEWEGluZm9Ad29sZnNzbC5jb20wHhcNMjEw
NzA0MDQzOTIyWhcNMjQwMzMwMDQzOTIyWjCBoTELMAkGA1UEBhMCVVMxEzARBgNV
BAgMCldhc2hpbmd0b24xEDAOBgNVBAcMB1NlYXR0bGUxEDAOBgNVBAoMB3dvbGZT
U0wxFDASBgNVBAsMC0VuZ2luZWVyaW5nMSIwIAYDVQQDDBl3b2xmU1NMIGludGVy
bWVkaWF0ZSBDQSAyMR8wHQYJKoZIhvcNAQkBFhBpbmZvQHdvbGZzc2wuY29tMIIB
IjANBgkqhkiG9w0BAQEFAAOCAQ8AMIIBCgKCAQEA0CA8NRlvLES0fkLHdbRqK6kj
hb+HtO7K10sfMdcRAqGrWD373FHKOh0flaZWgveP/2tQu+oQ4UcdNXcuSyjFU0Yj
K4L9WtP0IdsO4PJ2M0ezAL46sSOYU+vqoN4bzAVO7mOoLJMk1ph4dAPkyIlDYfEl
uM07h8ExJf26TPwplEWeaddnCoqO1VKTMKIO3WocsJR321JSt4khvpZ1JMvpSd+B
nZ34VX0BKut4AxLiIG7bYzXNoZbw+IwgNWmHAcq0VDagFeAjfbn7vpkFUPC/7H8S
4T11FU7IwjDmi/7li1X4RF7l41bgZi1vQlpFa5aqx11BCF/O19yfIORGeP/ZmQID
AQABo4IBOTCCATUwDAYDVR0TBAUwAwEB/zAdBgNVHQ4EFgQUBdG6hgCi7ioFJLcR
rS1g8ZAUjxcwgcQGA1UdIwSBvDCBuYAUc7AcpC+Cy89HpTjXsASCOn5yFSGhgZ2k
gZowgZcxCzAJBgNVBAYTAlVTMRMwEQYDVQQIDApXYXNoaW5ndG9uMRAwDgYDVQQH
DAdTZWF0dGxlMRAwDgYDVQQKDAd3b2xmU1NMMRQwEgYDVQQLDAtFbmdpbmVlcmlu
ZzEYMBYGA1UEAwwPd29sZlNTTCByb290IENBMR8wHQYJKoZIhvcNAQkBFhBpbmZv
QHdvbGZzc2wuY29tggFjMAsGA1UdDwQEAwIBBjAyBggrBgEFBQcBAQQmMCQwIgYI
KwYBBQUHMAGGFmh0dHA6Ly8xMjcuMC4wLjE6MjIyMjAwDQYJKoZIhvcNAQELBQAD
ggEBAHBOoXTzZKfA8yL/5dfaWSr0DzWtPer5BuX8LejVAhcd4Z2ePwGzlE/XbXPo
8ZKXL3TV4eUYgAeES4ThcURdXWPwoyCtoJaqXUAFZuuPEczWVbkJSt6/UIZUtdDm
mOwtYpWwFcZfqTd6IMZS7OGqwSe7AooixnJgI1mu5IxQlOn3swDfqh/0ag/K+MFC
4UdwNwEY9WzDP796XnQieNoQJzMVJfjm6MhDzZZ+SPeEzCuT7ERQO1jmfTSX/+Th
YLKt6wINlPdI0v8+Vau4Xbt+3z99s/MnaPlosPSNt6ES5eXQ1iGGC42WJsE/AjB0
zsj0zaQacEBw27smDTr3f4eXmLI=
-----END CERTIFICATE-----
Certificate:
    Data:
        Version: 3 (0x2)
        Serial Number: 99 (0x63)
    Signature Algorithm: sha256WithRSAEncryption
        Issuer: C=US, ST=Washington, L=Seattle, O=wolfSSL, OU=Engineering, CN=wolfSSL root CA/emailAddress=info@wolfssl.com
        Validity
            Not Before: Jul  4 04:39:22 2021 GMT
            Not After : Mar 30 04:39:22 2024 GMT
        Subject: C=US, ST=Washington, L=Seattle, O=wolfSSL, OU=Engineering, CN=wolfSSL root CA/emailAddress=info@wolfssl.com
        Subject Public Key Info:
            Public Key Algorithm: rsaEncryption
                Public-Key: (2048 bit)
                Modulus:
                    00:ab:2c:b4:2f:1d:06:09:ef:4e:29:86:84:7e:cc:
                    bf:a6:79:7c:f0:c0:c1:64:25:8c:75:b7:10:05:ca:
                    48:27:0c:0e:32:1c:b0:fe:99:85:39:b6:b9:a2:f7:
                    27:ff:6d:3c:8c:16:73:29:21:7f:8b:a6:54:71:90:
                    ad:cc:05:b9:9f:15:c7:0a:3f:5f:69:f4:0a:5f:8c:
                    71:b5:2c:bf:66:e2:03:9a:32:f4:d2:ec:2a:89:4b:
                    f9:35:88:14:33:47:4e:2e:05:79:01:ed:64:36:76:
                    b9:f8:85:cd:01:88:ac:c5:b2:b1:59:b8:cd:5a:f4:
                    09:09:38:9b:da:5a:cf:ce:78:99:1f:49:3d:41:d6:
                    06:7c:52:99:c8:97:d1:b3:80:3a:a2:4f:36:c4:c5:
                    96:30:77:31:38:c8:70:cc:e1:67:06:b3:2b:2f:93:
                    b5:69:cf:83:7e:88:53:9b:0f:46:21:4c:d6:05:36:
                    44:99:60:68:47:e5:32:01:12:d4:10:73:ae:9a:34:
                    94:fa:6e:b8:58:4f:7b:5b:8a:92:97:ad:fd:97:b9:
                    75:ca:c2:d4:45:7d:17:6b:cd:2f:f3:63:7a:0e:30:
                    b5:0b:a9:d9:a6:7c:74:60:9d:cc:09:03:43:f1:0f:
                    90:d3:b7:fe:6c:9f:d9:cd:78:4b:15:ae:8c:5b:f9:
                    99:81
                Exponent: 65537 (0x10001)
        X509v3 extensions:
            X509v3 Basic Constraints: 
                CA:TRUE
            X509v3 Subject Key Identifier: 
                73:B0:1C:A4:2F:82:CB:CF:47:A5:38:D7:B0:04:82:3A:7E:72:15:21
            X509v3 Authority Key Identifier: 
                keyid:73:B0:1C:A4:2F:82:CB:CF:47:A5:38:D7:B0:04:82:3A:7E:72:15:21
                DirName:/C=US/ST=Washington/L=Seattle/O=wolfSSL/OU=Engineering/CN=wolfSSL root CA/emailAddress=info@wolfssl.com
                serial:63

            X509v3 Key Usage: 
                Certificate Sign, CRL Sign
            Authority Information Access: 
                OCSP - URI:http://127.0.0.1:22220

    Signature Algorithm: sha256WithRSAEncryption
         31:d9:c7:b1:d1:51:82:0d:44:80:cf:70:a6:0e:61:79:81:50:
         21:fb:48:fb:d5:6c:ea:e6:dc:d1:7c:14:a8:16:ca:50:62:d8:
         db:f0:fe:37:66:96:67:e0:a0:22:26:97:35:d7:74:48:75:cc:
         17:d4:7f:e0:55:e7:14:03:dc:a7:91:7d:f1:67:c7:bb:c3:70:
         ea:a1:6f:ba:d0:f8:f7:a6:65:f8:a6:59:4c:9c:59:5b:b9:95:
         9d:5b:6c:6c:7c:69:c1:d8:81:91:69:48:c5:87:69:30:0b:42:
         c0:60:36:cf:8b:35:50:53:62:20:b2:e4:77:84:37:52:8e:7d:
         2a:e6:33:08:21:29:dc:04:4c:eb:78:97:95:ab:27:fb:60:ff:
         13:cb:98:dd:5f:61:92:38:33:95:1c:55:a7:9c:0a:43:fa:ed:
         65:b9:a9:58:b9:1a:7a:25:84:1c:50:25:f4:49:e5:80:94:cb:
         65:79:e6:a9:d8:71:3f:a0:e0:96:93:5a:48:8e:dc:84:d7:9f:
         84:7b:64:e8:49:82:31:f6:7e:4a:b8:26:f9:1f:ff:07:6a:0c:
         c9:f6:64:a3:70:13:6f:20:5a:e3:20:91:c2:34:06:c0:53:66:
         cc:8f:86:f4:a5:a3:25:27:cd:82:8f:b6:12:3c:8d:b7:6e:86:
         16:f7:d5:9e
-----BEGIN CERTIFICATE-----
MIIE5jCCA86gAwIBAgIBYzANBgkqhkiG9w0BAQsFADCBlzELMAkGA1UEBhMCVVMx
EzARBgNVBAgMCldhc2hpbmd0b24xEDAOBgNVBAcMB1NlYXR0bGUxEDAOBgNVBAoM
B3dvbGZTU0wxFDASBgNVBAsMC0VuZ2luZWVyaW5nMRgwFgYDVQQDDA93b2xmU1NM
IHJvb3QgQ0ExHzAdBgkqhkiG9w0BCQEWEGluZm9Ad29sZnNzbC5jb20wHhcNMjEw
NzA0MDQzOTIyWhcNMjQwMzMwMDQzOTIyWjCBlzELMAkGA1UEBhMCVVMxEzARBgNV
BAgMCldhc2hpbmd0b24xEDAOBgNVBAcMB1NlYXR0bGUxEDAOBgNVBAoMB3dvbGZT
U0wxFDASBgNVBAsMC0VuZ2luZWVyaW5nMRgwFgYDVQQDDA93b2xmU1NMIHJvb3Qg
Q0ExHzAdBgkqhkiG9w0BCQEWEGluZm9Ad29sZnNzbC5jb20wggEiMA0GCSqGSIb3
DQEBAQUAA4IBDwAwggEKAoIBAQCrLLQvHQYJ704phoR+zL+meXzwwMFkJYx1txAF
ykgnDA4yHLD+mYU5trmi9yf/bTyMFnMpIX+LplRxkK3MBbmfFccKP19p9ApfjHG1
LL9m4gOaMvTS7CqJS/k1iBQzR04uBXkB7WQ2drn4hc0BiKzFsrFZuM1a9AkJOJva
Ws/OeJkfST1B1gZ8UpnIl9GzgDqiTzbExZYwdzE4yHDM4WcGsysvk7Vpz4N+iFOb
D0YhTNYFNkSZYGhH5TIBEtQQc66aNJT6brhYT3tbipKXrf2XuXXKwtRFfRdrzS/z
Y3oOMLULqdmmfHRgncwJA0PxD5DTt/5sn9nNeEsVroxb+ZmBAgMBAAGjggE5MIIB
NTAMBgNVHRMEBTADAQH/MB0GA1UdDgQWBBRzsBykL4LLz0elONewBII6fnIVITCB
xAYDVR0jBIG8MIG5gBRzsBykL4LLz0elONewBII6fnIVIaGBnaSBmjCBlzELMAkG
A1UEBhMCVVMxEzARBgNVBAgMCldhc2hpbmd0b24xEDAOBgNVBAcMB1NlYXR0bGUx
EDAOBgNVBAoMB3dvbGZTU0wxFDASBgNVBAsMC0VuZ2luZWVyaW5nMRgwFgYDVQQD
DA93b2xmU1NMIHJvb3QgQ0ExHzAdBgkqhkiG9w0BCQEWEGluZm9Ad29sZnNzbC5j
b22CAWMwCwYDVR0PBAQDAgEGMDIGCCsGAQUFBwEBBCYwJDAiBggrBgEFBQcwAYYW
aHR0cDovLzEyNy4wLjAuMToyMjIyMDANBgkqhkiG9w0BAQsFAAOCAQEAMdnHsdFR
gg1EgM9wpg5heYFQIftI+9Vs6ubc0XwUqBbKUGLY2/D+N2aWZ+CgIiaXNdd0SHXM
F9R/4FXnFAPcp5F98WfHu8Nw6qFvutD496Zl+KZZTJxZW7mVnVtsbHxpwdiBkWlI
xYdpMAtCwGA2z4s1UFNiILLkd4Q3Uo59KuYzCCEp3ARM63iXlasn+2D/E8uY3V9h
kjgzlRxVp5wKQ/rtZbmpWLkaeiWEHFAl9EnlgJTLZXnmqdhxP6DglpNaSI7chNef
hHtk6EmCMfZ+Srgm+R//B2oMyfZko3ATbyBa4yCRwjQGwFNmzI+G9KWjJSfNgo+2
EjyNt26GFvfVng==
-----END CERTIFICATE-----
