Certificate:
    Data:
        Version: 3 (0x2)
        Serial Number: 9 (0x9)
        Signature Algorithm: sha256WithRSAEncryption
        Issuer: C = US, ST = Washington, L = Seattle, O = wolfSSL, OU = Engineering, CN = wolfSSL REVOKED intermediate CA, emailAddress = info@wolfssl.com
        Validity
            Not Before: Feb  5 21:00:55 2023 GMT
            Not After : Nov  1 21:00:55 2025 GMT
        Subject: C = US, ST = Washington, L = Seattle, O = wolfSSL, OU = Engineering, CN = www5.wolfssl.com, emailAddress = info@wolfssl.com
        Subject Public Key Info:
            Public Key Algorithm: rsaEncryption
                RSA Public-Key: (2048 bit)
                Modulus:
                    00:ac:73:6d:e9:fa:8c:36:72:3e:89:3b:52:29:bd:
                    14:70:a2:00:b4:08:58:b6:c6:c0:bf:80:6a:1f:a5:
                    f0:15:fc:f4:19:a2:67:f9:6a:5d:22:69:2e:9c:29:
                    53:1e:5a:4a:d1:27:d5:b8:3b:65:37:8a:a2:eb:1b:
                    d4:5d:90:11:35:11:af:e3:d1:8c:24:5b:b5:90:c0:
                    bf:de:cb:7a:05:71:1b:ef:76:d7:9d:43:47:85:dc:
                    24:b8:b8:54:fc:53:bf:c3:fd:e1:12:c6:fc:1b:6f:
                    95:aa:cf:bb:8e:22:af:83:bd:4e:6b:66:fe:7e:7e:
                    98:6f:b1:b9:fc:f9:8a:8a:18:92:9a:4c:27:5d:78:
                    6b:e9:d0:14:1c:ed:69:6d:29:4c:4e:52:e6:92:24:
                    53:b0:2e:c3:a4:94:8f:20:1c:29:5c:97:70:1a:32:
                    85:90:71:f7:d7:a5:99:4f:48:c7:3d:fc:3d:a7:e1:
                    f9:96:ea:c1:6b:ea:31:e0:9b:fb:68:3e:4b:ad:a4:
                    2b:06:90:c2:b4:27:ea:f3:a3:3e:6e:32:75:aa:70:
                    6a:e3:33:29:fb:42:09:94:79:a5:eb:3c:4e:89:02:
                    77:08:fd:da:ba:fc:14:c6:8e:c1:5e:db:6d:d0:07:
                    4f:02:79:60:e7:95:c3:c8:f4:54:83:21:12:79:03:
                    7f:e1
                Exponent: 65537 (0x10001)
        X509v3 extensions:
            X509v3 Basic Constraints: 
                CA:FALSE
            X509v3 Subject Key Identifier: 
                2A:48:B6:8B:00:F0:4B:35:73:94:07:87:52:A3:69:5E:E6:D8:42:87
            X509v3 Authority Key Identifier: 
                keyid:BB:15:9E:32:4D:E0:F8:AA:8A:B0:2E:0C:17:2B:5A:41:74:4B:06:45
                DirName:/C=US/ST=Washington/L=Seattle/O=wolfSSL/OU=Engineering/CN=wolfSSL root CA/emailAddress=info@wolfssl.com
                serial:03

            X509v3 Key Usage: 
                Digital Signature, Non Repudiation, Key Encipherment
            Authority Information Access: 
                OCSP - URI:http://127.0.0.1:22223

    Signature Algorithm: sha256WithRSAEncryption
         56:7d:7a:a7:fd:27:0d:56:30:89:9a:3c:88:32:6d:d3:1d:6e:
         74:0f:96:7a:32:06:20:a3:e1:fb:6d:cb:86:bc:a3:8d:27:40:
         7a:42:6f:76:88:72:7f:c6:db:cd:17:72:84:9e:25:86:18:78:
         55:d2:cc:22:55:b2:8e:ce:aa:6b:11:71:23:40:44:36:99:a0:
         a6:ad:e7:14:8d:5d:66:96:da:f9:60:2f:38:88:fe:10:03:f9:
         ef:e7:85:4e:ed:00:d0:a7:71:fa:e6:20:a9:56:02:85:5a:0d:
         3c:aa:9d:ae:b2:c9:c6:e4:c5:0d:0d:70:73:08:4f:d6:7a:00:
         e5:b6:8f:cd:f8:12:84:6c:d1:ff:d1:0d:54:51:0a:de:f2:ad:
         d2:f1:5c:5f:91:07:34:01:75:a7:9c:61:d2:08:97:e0:bb:55:
         09:d2:a6:38:d5:78:fa:1a:0c:86:2f:58:2f:3b:3c:ad:3b:cc:
         97:29:0e:ef:6e:a5:5a:ca:64:d1:e9:e8:17:ce:86:db:97:48:
         36:8f:a6:5b:2e:92:cf:fa:f5:a9:49:18:76:55:d6:87:58:83:
         5d:38:89:60:7c:6e:9a:3b:19:a3:8e:a9:e0:9f:d4:20:ee:e6:
         11:50:08:4f:d3:73:0f:6a:2d:a4:67:a4:c9:70:27:d3:cf:1e:
         c3:eb:d2:6b
-----BEGIN CERTIFICATE-----
MIIE9DCCA9ygAwIBAgIBCTANBgkqhkiG9w0BAQsFADCBpzELMAkGA1UEBhMCVVMx
EzARBgNVBAgMCldhc2hpbmd0b24xEDAOBgNVBAcMB1NlYXR0bGUxEDAOBgNVBAoM
B3dvbGZTU0wxFDASBgNVBAsMC0VuZ2luZWVyaW5nMSgwJgYDVQQDDB93b2xmU1NM
IFJFVk9LRUQgaW50ZXJtZWRpYXRlIENBMR8wHQYJKoZIhvcNAQkBFhBpbmZvQHdv
bGZzc2wuY29tMB4XDTIzMDIwNTIxMDA1NVoXDTI1MTEwMTIxMDA1NVowgZgxCzAJ
BgNVBAYTAlVTMRMwEQYDVQQIDApXYXNoaW5ndG9uMRAwDgYDVQQHDAdTZWF0dGxl
MRAwDgYDVQQKDAd3b2xmU1NMMRQwEgYDVQQLDAtFbmdpbmVlcmluZzEZMBcGA1UE
AwwQd3d3NS53b2xmc3NsLmNvbTEfMB0GCSqGSIb3DQEJARYQaW5mb0B3b2xmc3Ns
LmNvbTCCASIwDQYJKoZIhvcNAQEBBQADggEPADCCAQoCggEBAKxzben6jDZyPok7
Uim9FHCiALQIWLbGwL+Aah+l8BX89BmiZ/lqXSJpLpwpUx5aStEn1bg7ZTeKousb
1F2QETURr+PRjCRbtZDAv97LegVxG+92151DR4XcJLi4VPxTv8P94RLG/BtvlarP
u44ir4O9Tmtm/n5+mG+xufz5iooYkppMJ114a+nQFBztaW0pTE5S5pIkU7Auw6SU
jyAcKVyXcBoyhZBx99elmU9Ixz38Pafh+ZbqwWvqMeCb+2g+S62kKwaQwrQn6vOj
Pm4ydapwauMzKftCCZR5pes8TokCdwj92rr8FMaOwV7bbdAHTwJ5YOeVw8j0VIMh
EnkDf+ECAwEAAaOCATYwggEyMAkGA1UdEwQCMAAwHQYDVR0OBBYEFCpItosA8Es1
c5QHh1KjaV7m2EKHMIHEBgNVHSMEgbwwgbmAFLsVnjJN4PiqirAuDBcrWkF0SwZF
oYGdpIGaMIGXMQswCQYDVQQGEwJVUzETMBEGA1UECAwKV2FzaGluZ3RvbjEQMA4G
A1UEBwwHU2VhdHRsZTEQMA4GA1UECgwHd29sZlNTTDEUMBIGA1UECwwLRW5naW5l
ZXJpbmcxGDAWBgNVBAMMD3dvbGZTU0wgcm9vdCBDQTEfMB0GCSqGSIb3DQEJARYQ
aW5mb0B3b2xmc3NsLmNvbYIBAzALBgNVHQ8EBAMCBeAwMgYIKwYBBQUHAQEEJjAk
MCIGCCsGAQUFBzABhhZodHRwOi8vMTI3LjAuMC4xOjIyMjIzMA0GCSqGSIb3DQEB
CwUAA4IBAQBWfXqn/ScNVjCJmjyIMm3THW50D5Z6MgYgo+H7bcuGvKONJ0B6Qm92
iHJ/xtvNF3KEniWGGHhV0swiVbKOzqprEXEjQEQ2maCmrecUjV1mltr5YC84iP4Q
A/nv54VO7QDQp3H65iCpVgKFWg08qp2ussnG5MUNDXBzCE/WegDlto/N+BKEbNH/
0Q1UUQre8q3S8VxfkQc0AXWnnGHSCJfgu1UJ0qY41Xj6GgyGL1gvOzytO8yXKQ7v
bqVaymTR6egXzobbl0g2j6ZbLpLP+vWpSRh2VdaHWINdOIlgfG6aOxmjjqngn9Qg
7uYRUAhP03MPai2kZ6TJcCfTzx7D69Jr
-----END CERTIFICATE-----
Certificate:
    Data:
        Version: 3 (0x2)
        Serial Number: 3 (0x3)
        Signature Algorithm: sha256WithRSAEncryption
        Issuer: C = US, ST = Washington, L = Seattle, O = wolfSSL, OU = Engineering, CN = wolfSSL root CA, emailAddress = info@wolfssl.com
        Validity
            Not Before: Feb  5 21:00:55 2023 GMT
            Not After : Nov  1 21:00:55 2025 GMT
        Subject: C = US, ST = Washington, L = Seattle, O = wolfSSL, OU = Engineering, CN = wolfSSL REVOKED intermediate CA, emailAddress = info@wolfssl.com
        Subject Public Key Info:
            Public Key Algorithm: rsaEncryption
                RSA Public-Key: (2048 bit)
                Modulus:
                    00:de:c5:04:10:7d:c2:21:e9:12:45:da:d5:ba:28:
                    fd:a6:f4:30:44:a0:df:f9:70:5e:17:26:97:59:5c:
                    31:eb:13:70:ea:4a:dd:58:3e:4f:33:14:66:59:69:
                    7a:aa:90:e0:7c:c4:b2:36:c1:0a:f4:df:3e:34:6c:
                    1a:e9:2b:f1:a5:92:7e:a9:68:70:ba:a4:68:88:f3:
                    ec:10:40:64:a5:64:7d:d9:1e:51:49:9d:7f:c8:cc:
                    2b:6d:71:2a:06:ff:e6:1f:84:28:8a:c1:ed:a8:52:
                    f4:89:a5:c0:77:d8:13:66:c2:65:a5:63:03:98:b0:
                    4b:05:4f:0c:84:a0:f4:2d:72:73:6b:fa:0d:e1:cf:
                    45:27:ed:a3:8c:02:d7:ee:99:e2:a1:f0:e3:a0:ad:
                    69:ed:59:e4:27:41:8f:ef:fa:83:73:8f:5f:2b:68:
                    89:13:46:26:dc:f6:28:6b:3b:b2:b8:9b:52:2a:17:
                    1b:dc:72:45:73:da:75:24:35:8b:00:5e:23:37:64:
                    6a:16:74:b8:ee:fe:b7:11:71:be:0a:73:c8:54:c2:
                    d9:04:d2:1b:f5:53:ac:8d:2a:4f:fe:33:79:e6:5e:
                    e7:f3:86:d3:dc:bb:4b:d7:39:7f:5b:3c:67:fe:5e:
                    88:51:05:96:f2:b4:9a:45:09:4c:51:f0:6a:4d:88:
                    2a:17
                Exponent: 65537 (0x10001)
        X509v3 extensions:
            X509v3 Basic Constraints: 
                CA:TRUE
            X509v3 Subject Key Identifier: 
                BB:15:9E:32:4D:E0:F8:AA:8A:B0:2E:0C:17:2B:5A:41:74:4B:06:45
            X509v3 Authority Key Identifier: 
                keyid:73:B0:1C:A4:2F:82:CB:CF:47:A5:38:D7:B0:04:82:3A:7E:72:15:21
                DirName:/C=US/ST=Washington/L=Seattle/O=wolfSSL/OU=Engineering/CN=wolfSSL root CA/emailAddress=info@wolfssl.com
                serial:63

            X509v3 Key Usage: 
                Certificate Sign, CRL Sign
            Authority Information Access: 
                OCSP - URI:http://127.0.0.1:22220

    Signature Algorithm: sha256WithRSAEncryption
         51:50:06:ab:cf:0b:17:d4:c3:31:dd:21:5b:13:d2:96:0b:62:
         ef:28:ee:16:4c:b5:82:4a:ac:e3:ff:67:6f:3d:73:a6:82:bc:
         f4:3e:2d:f6:78:4f:59:16:d3:92:66:03:34:ed:bc:f9:68:6e:
         6e:f0:1c:00:99:6a:29:42:4c:25:28:6b:a9:d5:b9:6d:94:2d:
         9e:87:dc:3f:5a:02:02:85:c2:3d:f7:8d:58:37:74:71:88:d2:
         d0:41:63:48:d1:5b:5a:60:cc:02:c8:61:24:19:d8:55:d7:d2:
         67:ff:a3:5d:86:d0:0e:6b:68:bb:08:ef:69:2f:1e:27:d8:77:
         59:9d:73:f7:78:ee:28:5f:cd:b3:3b:6c:c0:0a:a8:be:a2:60:
         ba:fc:dc:c6:bd:ac:67:eb:42:a3:9c:6a:20:74:da:60:a8:8e:
         16:dc:75:40:6d:0a:87:0c:64:f1:cb:36:34:94:92:77:de:83:
         a3:ae:33:49:d6:54:4f:7d:ec:5b:1a:b6:74:04:9f:77:59:ea:
         1c:3b:a9:2b:c2:59:e0:58:a5:60:c7:37:6b:ab:b7:68:89:2d:
         2a:22:0b:67:54:ef:9a:f5:07:74:05:11:d0:11:29:fd:49:9f:
         8c:2a:5c:ae:f0:aa:3c:2b:ee:0c:da:ca:de:32:93:a8:2f:66:
         29:f0:f4:19
-----BEGIN CERTIFICATE-----
MIIE9jCCA96gAwIBAgIBAzANBgkqhkiG9w0BAQsFADCBlzELMAkGA1UEBhMCVVMx
EzARBgNVBAgMCldhc2hpbmd0b24xEDAOBgNVBAcMB1NlYXR0bGUxEDAOBgNVBAoM
B3dvbGZTU0wxFDASBgNVBAsMC0VuZ2luZWVyaW5nMRgwFgYDVQQDDA93b2xmU1NM
IHJvb3QgQ0ExHzAdBgkqhkiG9w0BCQEWEGluZm9Ad29sZnNzbC5jb20wHhcNMjMw
MjA1MjEwMDU1WhcNMjUxMTAxMjEwMDU1WjCBpzELMAkGA1UEBhMCVVMxEzARBgNV
BAgMCldhc2hpbmd0b24xEDAOBgNVBAcMB1NlYXR0bGUxEDAOBgNVBAoMB3dvbGZT
U0wxFDASBgNVBAsMC0VuZ2luZWVyaW5nMSgwJgYDVQQDDB93b2xmU1NMIFJFVk9L
RUQgaW50ZXJtZWRpYXRlIENBMR8wHQYJKoZIhvcNAQkBFhBpbmZvQHdvbGZzc2wu
Y29tMIIBIjANBgkqhkiG9w0BAQEFAAOCAQ8AMIIBCgKCAQEA3sUEEH3CIekSRdrV
uij9pvQwRKDf+XBeFyaXWVwx6xNw6krdWD5PMxRmWWl6qpDgfMSyNsEK9N8+NGwa
6SvxpZJ+qWhwuqRoiPPsEEBkpWR92R5RSZ1/yMwrbXEqBv/mH4QoisHtqFL0iaXA
d9gTZsJlpWMDmLBLBU8MhKD0LXJza/oN4c9FJ+2jjALX7pniofDjoK1p7VnkJ0GP
7/qDc49fK2iJE0Ym3PYoazuyuJtSKhcb3HJFc9p1JDWLAF4jN2RqFnS47v63EXG+
CnPIVMLZBNIb9VOsjSpP/jN55l7n84bT3LtL1zl/Wzxn/l6IUQWW8rSaRQlMUfBq
TYgqFwIDAQABo4IBOTCCATUwDAYDVR0TBAUwAwEB/zAdBgNVHQ4EFgQUuxWeMk3g
+KqKsC4MFytaQXRLBkUwgcQGA1UdIwSBvDCBuYAUc7AcpC+Cy89HpTjXsASCOn5y
FSGhgZ2kgZowgZcxCzAJBgNVBAYTAlVTMRMwEQYDVQQIDApXYXNoaW5ndG9uMRAw
DgYDVQQHDAdTZWF0dGxlMRAwDgYDVQQKDAd3b2xmU1NMMRQwEgYDVQQLDAtFbmdp
bmVlcmluZzEYMBYGA1UEAwwPd29sZlNTTCByb290IENBMR8wHQYJKoZIhvcNAQkB
FhBpbmZvQHdvbGZzc2wuY29tggFjMAsGA1UdDwQEAwIBBjAyBggrBgEFBQcBAQQm
MCQwIgYIKwYBBQUHMAGGFmh0dHA6Ly8xMjcuMC4wLjE6MjIyMjAwDQYJKoZIhvcN
AQELBQADggEBAFFQBqvPCxfUwzHdIVsT0pYLYu8o7hZMtYJKrOP/Z289c6aCvPQ+
LfZ4T1kW05JmAzTtvPlobm7wHACZailCTCUoa6nVuW2ULZ6H3D9aAgKFwj33jVg3
dHGI0tBBY0jRW1pgzALIYSQZ2FXX0mf/o12G0A5raLsI72kvHifYd1mdc/d47ihf
zbM7bMAKqL6iYLr83Ma9rGfrQqOcaiB02mCojhbcdUBtCocMZPHLNjSUknfeg6Ou
M0nWVE997FsatnQEn3dZ6hw7qSvCWeBYpWDHN2urt2iJLSoiC2dU75r1B3QFEdAR
Kf1Jn4wqXK7wqjwr7gzayt4yk6gvZinw9Bk=
-----END CERTIFICATE-----
Certificate:
    Data:
        Version: 3 (0x2)
        Serial Number: 99 (0x63)
        Signature Algorithm: sha256WithRSAEncryption
        Issuer: C = US, ST = Washington, L = Seattle, O = wolfSSL, OU = Engineering, CN = wolfSSL root CA, emailAddress = info@wolfssl.com
        Validity
            Not Before: Feb  5 21:00:55 2023 GMT
            Not After : Nov  1 21:00:55 2025 GMT
        Subject: C = US, ST = Washington, L = Seattle, O = wolfSSL, OU = Engineering, CN = wolfSSL root CA, emailAddress = info@wolfssl.com
        Subject Public Key Info:
            Public Key Algorithm: rsaEncryption
                RSA Public-Key: (2048 bit)
                Modulus:
                    00:ab:2c:b4:2f:1d:06:09:ef:4e:29:86:84:7e:cc:
                    bf:a6:79:7c:f0:c0:c1:64:25:8c:75:b7:10:05:ca:
                    48:27:0c:0e:32:1c:b0:fe:99:85:39:b6:b9:a2:f7:
                    27:ff:6d:3c:8c:16:73:29:21:7f:8b:a6:54:71:90:
                    ad:cc:05:b9:9f:15:c7:0a:3f:5f:69:f4:0a:5f:8c:
                    71:b5:2c:bf:66:e2:03:9a:32:f4:d2:ec:2a:89:4b:
                    f9:35:88:14:33:47:4e:2e:05:79:01:ed:64:36:76:
                    b9:f8:85:cd:01:88:ac:c5:b2:b1:59:b8:cd:5a:f4:
                    09:09:38:9b:da:5a:cf:ce:78:99:1f:49:3d:41:d6:
                    06:7c:52:99:c8:97:d1:b3:80:3a:a2:4f:36:c4:c5:
                    96:30:77:31:38:c8:70:cc:e1:67:06:b3:2b:2f:93:
                    b5:69:cf:83:7e:88:53:9b:0f:46:21:4c:d6:05:36:
                    44:99:60:68:47:e5:32:01:12:d4:10:73:ae:9a:34:
                    94:fa:6e:b8:58:4f:7b:5b:8a:92:97:ad:fd:97:b9:
                    75:ca:c2:d4:45:7d:17:6b:cd:2f:f3:63:7a:0e:30:
                    b5:0b:a9:d9:a6:7c:74:60:9d:cc:09:03:43:f1:0f:
                    90:d3:b7:fe:6c:9f:d9:cd:78:4b:15:ae:8c:5b:f9:
                    99:81
                Exponent: 65537 (0x10001)
        X509v3 extensions:
            X509v3 Basic Constraints: 
                CA:TRUE
            X509v3 Subject Key Identifier: 
                73:B0:1C:A4:2F:82:CB:CF:47:A5:38:D7:B0:04:82:3A:7E:72:15:21
            X509v3 Authority Key Identifier: 
                keyid:73:B0:1C:A4:2F:82:CB:CF:47:A5:38:D7:B0:04:82:3A:7E:72:15:21
                DirName:/C=US/ST=Washington/L=Seattle/O=wolfSSL/OU=Engineering/CN=wolfSSL root CA/emailAddress=info@wolfssl.com
                serial:63

            X509v3 Key Usage: 
                Certificate Sign, CRL Sign
            Authority Information Access: 
                OCSP - URI:http://127.0.0.1:22220

    Signature Algorithm: sha256WithRSAEncryption
         a2:d9:fb:5f:18:5c:07:91:b4:e2:c8:8d:2c:54:34:c0:ec:d0:
         2e:04:77:f3:dc:d9:1b:53:4e:90:62:c4:7b:41:90:2c:1f:9b:
         8f:41:0b:12:14:4a:d0:d6:1a:4c:d4:d2:30:08:5c:a7:f6:a9:
         1b:49:23:4f:63:ea:6b:4d:e4:4c:55:fc:e2:27:65:de:16:1c:
         9f:30:bb:16:c8:2b:28:ad:26:91:40:bc:51:35:72:5f:54:bb:
         6f:c1:a2:ad:e0:82:a0:9d:d1:30:ba:b6:1c:9d:84:a1:8f:43:
         60:81:ef:53:76:6b:90:e8:fb:85:69:98:10:ba:13:52:44:11:
         1c:67:48:e0:27:30:82:da:86:89:58:43:ea:0b:c8:05:77:29:
         72:f1:6e:29:93:d8:79:1a:c6:80:80:31:e5:45:78:94:b9:98:
         4e:cf:64:7b:b5:73:40:60:09:5e:39:d6:8c:d8:6e:74:53:e3:
         e7:00:c5:de:7c:46:91:11:e7:22:86:b3:c2:3c:cd:3f:14:9b:
         5d:7b:d9:22:af:0f:13:93:c1:27:a8:95:20:f7:bb:9f:9b:f8:
         e2:f7:32:23:2f:3d:2f:96:67:b6:ec:c9:95:2b:12:e5:cc:a9:
         99:83:b2:0b:6d:3c:21:4f:41:3d:76:49:45:12:e4:d8:7d:2e:
         da:23:a2:b8
-----BEGIN CERTIFICATE-----
MIIE5jCCA86gAwIBAgIBYzANBgkqhkiG9w0BAQsFADCBlzELMAkGA1UEBhMCVVMx
EzARBgNVBAgMCldhc2hpbmd0b24xEDAOBgNVBAcMB1NlYXR0bGUxEDAOBgNVBAoM
B3dvbGZTU0wxFDASBgNVBAsMC0VuZ2luZWVyaW5nMRgwFgYDVQQDDA93b2xmU1NM
IHJvb3QgQ0ExHzAdBgkqhkiG9w0BCQEWEGluZm9Ad29sZnNzbC5jb20wHhcNMjMw
MjA1MjEwMDU1WhcNMjUxMTAxMjEwMDU1WjCBlzELMAkGA1UEBhMCVVMxEzARBgNV
BAgMCldhc2hpbmd0b24xEDAOBgNVBAcMB1NlYXR0bGUxEDAOBgNVBAoMB3dvbGZT
U0wxFDASBgNVBAsMC0VuZ2luZWVyaW5nMRgwFgYDVQQDDA93b2xmU1NMIHJvb3Qg
Q0ExHzAdBgkqhkiG9w0BCQEWEGluZm9Ad29sZnNzbC5jb20wggEiMA0GCSqGSIb3
DQEBAQUAA4IBDwAwggEKAoIBAQCrLLQvHQYJ704phoR+zL+meXzwwMFkJYx1txAF
ykgnDA4yHLD+mYU5trmi9yf/bTyMFnMpIX+LplRxkK3MBbmfFccKP19p9ApfjHG1
LL9m4gOaMvTS7CqJS/k1iBQzR04uBXkB7WQ2drn4hc0BiKzFsrFZuM1a9AkJOJva
Ws/OeJkfST1B1gZ8UpnIl9GzgDqiTzbExZYwdzE4yHDM4WcGsysvk7Vpz4N+iFOb
D0YhTNYFNkSZYGhH5TIBEtQQc66aNJT6brhYT3tbipKXrf2XuXXKwtRFfRdrzS/z
Y3oOMLULqdmmfHRgncwJA0PxD5DTt/5sn9nNeEsVroxb+ZmBAgMBAAGjggE5MIIB
NTAMBgNVHRMEBTADAQH/MB0GA1UdDgQWBBRzsBykL4LLz0elONewBII6fnIVITCB
xAYDVR0jBIG8MIG5gBRzsBykL4LLz0elONewBII6fnIVIaGBnaSBmjCBlzELMAkG
A1UEBhMCVVMxEzARBgNVBAgMCldhc2hpbmd0b24xEDAOBgNVBAcMB1NlYXR0bGUx
EDAOBgNVBAoMB3dvbGZTU0wxFDASBgNVBAsMC0VuZ2luZWVyaW5nMRgwFgYDVQQD
DA93b2xmU1NMIHJvb3QgQ0ExHzAdBgkqhkiG9w0BCQEWEGluZm9Ad29sZnNzbC5j
b22CAWMwCwYDVR0PBAQDAgEGMDIGCCsGAQUFBwEBBCYwJDAiBggrBgEFBQcwAYYW
aHR0cDovLzEyNy4wLjAuMToyMjIyMDANBgkqhkiG9w0BAQsFAAOCAQEAotn7Xxhc
B5G04siNLFQ0wOzQLgR389zZG1NOkGLEe0GQLB+bj0ELEhRK0NYaTNTSMAhcp/ap
G0kjT2Pqa03kTFX84idl3hYcnzC7FsgrKK0mkUC8UTVyX1S7b8GireCCoJ3RMLq2
HJ2EoY9DYIHvU3ZrkOj7hWmYELoTUkQRHGdI4CcwgtqGiVhD6gvIBXcpcvFuKZPY
eRrGgIAx5UV4lLmYTs9ke7VzQGAJXjnWjNhudFPj5wDF3nxGkRHnIoazwjzNPxSb
XXvZIq8PE5PBJ6iVIPe7n5v44vcyIy89L5ZntuzJlSsS5cypmYOyC208IU9BPXZJ
RRLk2H0u2iOiuA==
-----END CERTIFICATE-----
