Certificate:
    Data:
        Version: 3 (0x2)
        Serial Number: 6 (0x6)
    Signature Algorithm: sha256WithRSAEncryption
        Issuer: C=US, ST=Washington, L=Seattle, O=wolfSSL, OU=Engineering, CN=wolfSSL intermediate CA 1/emailAddress=info@wolfssl.com
        Validity
            Not Before: Jul  4 04:39:22 2021 GMT
            Not After : Mar 30 04:39:22 2024 GMT
        Subject: C=US, ST=Washington, L=Seattle, O=wolfSSL, OU=Engineering, CN=www2.wolfssl.com/emailAddress=info@wolfssl.com
        Subject Public Key Info:
            Public Key Algorithm: rsaEncryption
                Public-Key: (2048 bit)
                Modulus:
                    00:c6:35:8a:e8:aa:bd:33:c9:5e:84:43:67:42:65:
                    2a:3c:e3:89:b4:a6:67:a1:3b:ee:6d:85:d1:d3:2b:
                    6e:b1:62:d4:f1:22:43:a0:d5:b7:a5:7d:b5:f5:6c:
                    09:06:7c:8c:ef:87:af:4f:34:ce:27:eb:f3:4a:37:
                    57:c3:d7:d8:ee:e4:a0:77:65:2c:a7:c2:10:65:6b:
                    7b:48:c4:d8:28:fe:4c:4e:4f:7e:2f:20:c4:49:5b:
                    71:38:40:0d:36:a3:57:b3:44:da:be:cd:54:14:15:
                    66:0f:d3:05:08:f2:2e:03:67:2e:5c:5d:e1:b0:e6:
                    c0:25:8f:58:77:5b:d3:d7:a8:22:ea:56:d3:0e:01:
                    6d:38:34:56:47:aa:12:c4:ba:2a:ef:ec:18:f5:d4:
                    db:b9:fa:6f:dc:50:eb:ee:10:a2:14:b5:9a:12:e1:
                    e3:85:0f:79:14:b8:70:6d:0d:1c:1d:38:57:85:6a:
                    82:0c:d6:bd:2c:bf:20:f1:28:2e:f6:34:80:a7:0d:
                    32:82:35:4f:c1:b1:e5:9e:26:d5:f8:b9:39:57:43:
                    ef:ed:f1:10:5c:3e:32:ba:d9:e4:9e:40:cd:28:ea:
                    26:46:9b:a9:34:8d:9f:b9:fd:45:7d:14:f7:ce:ca:
                    3b:85:87:a7:64:74:9c:65:29:18:b3:f5:b1:ad:92:
                    62:39
                Exponent: 65537 (0x10001)
        X509v3 extensions:
            X509v3 Basic Constraints: 
                CA:FALSE
            X509v3 Subject Key Identifier: 
                7D:6D:FD:F6:0B:4F:3F:4A:62:91:F5:F3:13:60:51:86:C3:5A:9F:D6
            X509v3 Authority Key Identifier: 
                keyid:83:C6:3A:89:2C:81:F4:02:D7:9D:4C:E2:2A:C0:71:82:64:44:DA:0E
                DirName:/C=US/ST=Washington/L=Seattle/O=wolfSSL/OU=Engineering/CN=wolfSSL root CA/emailAddress=info@wolfssl.com
                serial:01

            X509v3 Key Usage: 
                Digital Signature, Non Repudiation, Key Encipherment
            Authority Information Access: 
                OCSP - URI:http://127.0.0.1:22221

    Signature Algorithm: sha256WithRSAEncryption
         c0:36:b4:d4:3c:bd:c5:4a:08:ea:bd:03:d7:86:1a:0e:b6:a6:
         66:11:0f:44:85:6b:57:45:6d:6a:f2:61:0b:71:f4:26:97:48:
         c4:e6:b8:07:bc:3d:57:fb:6a:46:cb:1d:05:c1:eb:e3:de:32:
         e7:8e:8c:8d:1e:6c:91:55:ff:42:5d:2c:72:25:21:25:ee:a3:
         c9:16:40:76:93:ab:d1:26:af:d3:6f:4b:35:6e:dc:df:9c:e3:
         9e:09:66:f6:8c:05:1c:9f:8f:b4:d9:0a:fc:17:51:88:84:3e:
         1a:6c:89:10:df:ea:6d:95:d5:f8:6d:ed:0f:ee:05:26:47:94:
         ed:9c:b9:b4:29:b2:0a:2a:4f:11:4b:99:81:f8:98:f3:b0:fa:
         b5:30:a3:0b:0e:3e:ab:6c:29:f0:1a:83:52:17:bb:69:78:04:
         b2:be:53:3e:3d:6f:a7:c4:d1:22:76:ab:7e:0f:0b:cc:78:36:
         aa:ab:41:de:28:9c:47:e2:b3:03:93:fa:75:01:9c:f2:68:17:
         35:4d:24:ec:8b:a1:17:31:21:64:2d:60:11:c5:24:f8:90:b2:
         41:e3:45:e6:6b:e7:b4:e5:11:5e:73:ab:3c:39:d3:65:a0:1e:
         da:d7:94:f8:2b:0e:ac:8c:d7:18:06:66:1a:b6:56:ad:8a:cc:
         d7:ef:7e:b1
-----BEGIN CERTIFICATE-----
MIIE7jCCA9agAwIBAgIBBjANBgkqhkiG9w0BAQsFADCBoTELMAkGA1UEBhMCVVMx
EzARBgNVBAgMCldhc2hpbmd0b24xEDAOBgNVBAcMB1NlYXR0bGUxEDAOBgNVBAoM
B3dvbGZTU0wxFDASBgNVBAsMC0VuZ2luZWVyaW5nMSIwIAYDVQQDDBl3b2xmU1NM
IGludGVybWVkaWF0ZSBDQSAxMR8wHQYJKoZIhvcNAQkBFhBpbmZvQHdvbGZzc2wu
Y29tMB4XDTIxMDcwNDA0MzkyMloXDTI0MDMzMDA0MzkyMlowgZgxCzAJBgNVBAYT
AlVTMRMwEQYDVQQIDApXYXNoaW5ndG9uMRAwDgYDVQQHDAdTZWF0dGxlMRAwDgYD
VQQKDAd3b2xmU1NMMRQwEgYDVQQLDAtFbmdpbmVlcmluZzEZMBcGA1UEAwwQd3d3
Mi53b2xmc3NsLmNvbTEfMB0GCSqGSIb3DQEJARYQaW5mb0B3b2xmc3NsLmNvbTCC
ASIwDQYJKoZIhvcNAQEBBQADggEPADCCAQoCggEBAMY1iuiqvTPJXoRDZ0JlKjzj
ibSmZ6E77m2F0dMrbrFi1PEiQ6DVt6V9tfVsCQZ8jO+Hr080zifr80o3V8PX2O7k
oHdlLKfCEGVre0jE2Cj+TE5Pfi8gxElbcThADTajV7NE2r7NVBQVZg/TBQjyLgNn
Llxd4bDmwCWPWHdb09eoIupW0w4BbTg0VkeqEsS6Ku/sGPXU27n6b9xQ6+4QohS1
mhLh44UPeRS4cG0NHB04V4VqggzWvSy/IPEoLvY0gKcNMoI1T8Gx5Z4m1fi5OVdD
7+3xEFw+MrrZ5J5AzSjqJkabqTSNn7n9RX0U987KO4WHp2R0nGUpGLP1sa2SYjkC
AwEAAaOCATYwggEyMAkGA1UdEwQCMAAwHQYDVR0OBBYEFH1t/fYLTz9KYpH18xNg
UYbDWp/WMIHEBgNVHSMEgbwwgbmAFIPGOoksgfQC151M4irAcYJkRNoOoYGdpIGa
MIGXMQswCQYDVQQGEwJVUzETMBEGA1UECAwKV2FzaGluZ3RvbjEQMA4GA1UEBwwH
U2VhdHRsZTEQMA4GA1UECgwHd29sZlNTTDEUMBIGA1UECwwLRW5naW5lZXJpbmcx
GDAWBgNVBAMMD3dvbGZTU0wgcm9vdCBDQTEfMB0GCSqGSIb3DQEJARYQaW5mb0B3
b2xmc3NsLmNvbYIBATALBgNVHQ8EBAMCBeAwMgYIKwYBBQUHAQEEJjAkMCIGCCsG
AQUFBzABhhZodHRwOi8vMTI3LjAuMC4xOjIyMjIxMA0GCSqGSIb3DQEBCwUAA4IB
AQDANrTUPL3FSgjqvQPXhhoOtqZmEQ9EhWtXRW1q8mELcfQml0jE5rgHvD1X+2pG
yx0Fwevj3jLnjoyNHmyRVf9CXSxyJSEl7qPJFkB2k6vRJq/Tb0s1btzfnOOeCWb2
jAUcn4+02Qr8F1GIhD4abIkQ3+ptldX4be0P7gUmR5TtnLm0KbIKKk8RS5mB+Jjz
sPq1MKMLDj6rbCnwGoNSF7tpeASyvlM+PW+nxNEidqt+DwvMeDaqq0HeKJxH4rMD
k/p1AZzyaBc1TSTsi6EXMSFkLWARxST4kLJB40Xma+e05RFec6s8OdNloB7a15T4
Kw6sjNcYBmYatlatiszX736x
-----END CERTIFICATE-----
Certificate:
    Data:
        Version: 3 (0x2)
        Serial Number: 1 (0x1)
    Signature Algorithm: sha256WithRSAEncryption
        Issuer: C=US, ST=Washington, L=Seattle, O=wolfSSL, OU=Engineering, CN=wolfSSL root CA/emailAddress=info@wolfssl.com
        Validity
            Not Before: Jul  4 04:39:22 2021 GMT
            Not After : Mar 30 04:39:22 2024 GMT
        Subject: C=US, ST=Washington, L=Seattle, O=wolfSSL, OU=Engineering, CN=wolfSSL intermediate CA 1/emailAddress=info@wolfssl.com
        Subject Public Key Info:
            Public Key Algorithm: rsaEncryption
                Public-Key: (2048 bit)
                Modulus:
                    00:de:b4:c8:5c:77:e0:2d:b1:f5:b9:ad:16:47:35:
                    a0:35:65:65:c6:e1:40:ab:1e:b4:b9:13:b7:cb:8c:
                    bb:77:a5:76:da:6d:87:87:f6:4a:4d:13:e4:26:3e:
                    27:87:ee:5b:c7:6a:3f:45:30:61:55:5c:f6:35:d1:
                    65:fa:98:11:a3:a7:55:d5:be:91:82:4b:fc:be:90:
                    d6:50:53:63:9a:2c:22:e1:35:11:dc:78:02:97:8a:
                    e4:46:92:9c:53:08:76:de:1f:53:b6:b8:ca:77:3e:
                    79:6e:bc:d0:e3:0d:30:5b:4c:f6:94:0d:30:29:64:
                    9f:04:e5:db:fb:89:60:67:bb:af:26:83:51:77:24:
                    2f:2b:0b:a1:94:81:10:98:e8:eb:26:a8:1e:7c:e4:
                    c4:6c:67:06:95:55:4a:dd:52:f4:f2:60:6d:01:2b:
                    19:91:35:6d:a4:08:47:06:71:24:00:d9:de:c6:56:
                    f3:8b:53:2c:e2:9a:96:a5:f3:62:e5:c4:e3:23:f2:
                    d2:fc:21:ea:0f:62:76:8d:d5:99:48:ce:dc:58:c4:
                    bb:7f:da:94:2c:80:74:83:c5:e0:b0:15:7e:41:fd:
                    0e:f2:f4:f0:78:76:7b:ad:26:0d:aa:48:96:17:2f:
                    21:e3:95:2b:26:37:f9:aa:80:2f:fe:de:f6:5e:bc:
                    97:7f
                Exponent: 65537 (0x10001)
        X509v3 extensions:
            X509v3 Basic Constraints: 
                CA:TRUE
            X509v3 Subject Key Identifier: 
                83:C6:3A:89:2C:81:F4:02:D7:9D:4C:E2:2A:C0:71:82:64:44:DA:0E
            X509v3 Authority Key Identifier: 
                keyid:73:B0:1C:A4:2F:82:CB:CF:47:A5:38:D7:B0:04:82:3A:7E:72:15:21
                DirName:/C=US/ST=Washington/L=Seattle/O=wolfSSL/OU=Engineering/CN=wolfSSL root CA/emailAddress=info@wolfssl.com
                serial:63

            X509v3 Key Usage: 
                Certificate Sign, CRL Sign
            Authority Information Access: 
                OCSP - URI:http://127.0.0.1:22220

    Signature Algorithm: sha256WithRSAEncryption
         6b:0f:01:97:05:07:61:82:48:fc:5c:b7:3c:51:9b:69:ce:c1:
         fd:b1:24:3c:d1:37:74:07:57:0e:88:ad:5b:d9:be:cc:84:91:
         d3:56:e4:03:13:95:c1:07:c5:d0:25:21:0e:f6:6d:e4:3a:a9:
         63:19:62:42:7f:0a:f4:ec:4d:d1:07:74:b9:a2:22:37:e3:aa:
         1c:ca:f9:03:5f:00:2c:5e:c7:f0:65:23:88:bb:62:9f:0b:c6:
         1b:cd:9a:97:e2:e8:c4:e9:52:dc:30:55:50:43:50:91:a3:78:
         08:24:2a:d4:f5:ae:0b:ba:d8:b7:0f:08:2e:2b:6e:ca:28:5c:
         cf:d9:07:98:7d:8f:59:ec:9b:10:2c:8f:2e:fa:2d:d4:c3:e4:
         c6:d9:19:e9:c1:8d:7e:56:10:65:3f:39:86:78:2b:75:a7:88:
         e5:44:a3:69:44:31:4d:9d:c0:58:c8:02:6d:1c:bd:37:41:a9:
         4d:59:3f:48:a9:fd:e8:cd:9e:d0:25:b8:3a:27:d8:58:79:16:
         71:0b:c5:35:b3:be:6b:9c:9e:4e:36:6d:ea:a1:68:c4:8e:ff:
         9d:85:57:6c:46:c3:40:79:32:31:db:84:92:f7:70:15:65:1c:
         57:5d:69:04:11:57:bc:3e:49:b6:32:91:b1:af:91:64:7a:ff:
         09:a8:43:3b
-----BEGIN CERTIFICATE-----
MIIE8DCCA9igAwIBAgIBATANBgkqhkiG9w0BAQsFADCBlzELMAkGA1UEBhMCVVMx
EzARBgNVBAgMCldhc2hpbmd0b24xEDAOBgNVBAcMB1NlYXR0bGUxEDAOBgNVBAoM
B3dvbGZTU0wxFDASBgNVBAsMC0VuZ2luZWVyaW5nMRgwFgYDVQQDDA93b2xmU1NM
IHJvb3QgQ0ExHzAdBgkqhkiG9w0BCQEWEGluZm9Ad29sZnNzbC5jb20wHhcNMjEw
NzA0MDQzOTIyWhcNMjQwMzMwMDQzOTIyWjCBoTELMAkGA1UEBhMCVVMxEzARBgNV
BAgMCldhc2hpbmd0b24xEDAOBgNVBAcMB1NlYXR0bGUxEDAOBgNVBAoMB3dvbGZT
U0wxFDASBgNVBAsMC0VuZ2luZWVyaW5nMSIwIAYDVQQDDBl3b2xmU1NMIGludGVy
bWVkaWF0ZSBDQSAxMR8wHQYJKoZIhvcNAQkBFhBpbmZvQHdvbGZzc2wuY29tMIIB
IjANBgkqhkiG9w0BAQEFAAOCAQ8AMIIBCgKCAQEA3rTIXHfgLbH1ua0WRzWgNWVl
xuFAqx60uRO3y4y7d6V22m2Hh/ZKTRPkJj4nh+5bx2o/RTBhVVz2NdFl+pgRo6dV
1b6Rgkv8vpDWUFNjmiwi4TUR3HgCl4rkRpKcUwh23h9TtrjKdz55brzQ4w0wW0z2
lA0wKWSfBOXb+4lgZ7uvJoNRdyQvKwuhlIEQmOjrJqgefOTEbGcGlVVK3VL08mBt
ASsZkTVtpAhHBnEkANnexlbzi1Ms4pqWpfNi5cTjI/LS/CHqD2J2jdWZSM7cWMS7
f9qULIB0g8XgsBV+Qf0O8vTweHZ7rSYNqkiWFy8h45UrJjf5qoAv/t72XryXfwID
AQABo4IBOTCCATUwDAYDVR0TBAUwAwEB/zAdBgNVHQ4EFgQUg8Y6iSyB9ALXnUzi
KsBxgmRE2g4wgcQGA1UdIwSBvDCBuYAUc7AcpC+Cy89HpTjXsASCOn5yFSGhgZ2k
gZowgZcxCzAJBgNVBAYTAlVTMRMwEQYDVQQIDApXYXNoaW5ndG9uMRAwDgYDVQQH
DAdTZWF0dGxlMRAwDgYDVQQKDAd3b2xmU1NMMRQwEgYDVQQLDAtFbmdpbmVlcmlu
ZzEYMBYGA1UEAwwPd29sZlNTTCByb290IENBMR8wHQYJKoZIhvcNAQkBFhBpbmZv
QHdvbGZzc2wuY29tggFjMAsGA1UdDwQEAwIBBjAyBggrBgEFBQcBAQQmMCQwIgYI
KwYBBQUHMAGGFmh0dHA6Ly8xMjcuMC4wLjE6MjIyMjAwDQYJKoZIhvcNAQELBQAD
ggEBAGsPAZcFB2GCSPxctzxRm2nOwf2xJDzRN3QHVw6IrVvZvsyEkdNW5AMTlcEH
xdAlIQ72beQ6qWMZYkJ/CvTsTdEHdLmiIjfjqhzK+QNfACxex/BlI4i7Yp8LxhvN
mpfi6MTpUtwwVVBDUJGjeAgkKtT1rgu62LcPCC4rbsooXM/ZB5h9j1nsmxAsjy76
LdTD5MbZGenBjX5WEGU/OYZ4K3WniOVEo2lEMU2dwFjIAm0cvTdBqU1ZP0ip/ejN
ntAluDon2Fh5FnELxTWzvmucnk42beqhaMSO/52FV2xGw0B5MjHbhJL3cBVlHFdd
aQQRV7w+SbYykbGvkWR6/wmoQzs=
-----END CERTIFICATE-----
Certificate:
    Data:
        Version: 3 (0x2)
        Serial Number: 99 (0x63)
    Signature Algorithm: sha256WithRSAEncryption
        Issuer: C=US, ST=Washington, L=Seattle, O=wolfSSL, OU=Engineering, CN=wolfSSL root CA/emailAddress=info@wolfssl.com
        Validity
            Not Before: Jul  4 04:39:22 2021 GMT
            Not After : Mar 30 04:39:22 2024 GMT
        Subject: C=US, ST=Washington, L=Seattle, O=wolfSSL, OU=Engineering, CN=wolfSSL root CA/emailAddress=info@wolfssl.com
        Subject Public Key Info:
            Public Key Algorithm: rsaEncryption
                Public-Key: (2048 bit)
                Modulus:
                    00:ab:2c:b4:2f:1d:06:09:ef:4e:29:86:84:7e:cc:
                    bf:a6:79:7c:f0:c0:c1:64:25:8c:75:b7:10:05:ca:
                    48:27:0c:0e:32:1c:b0:fe:99:85:39:b6:b9:a2:f7:
                    27:ff:6d:3c:8c:16:73:29:21:7f:8b:a6:54:71:90:
                    ad:cc:05:b9:9f:15:c7:0a:3f:5f:69:f4:0a:5f:8c:
                    71:b5:2c:bf:66:e2:03:9a:32:f4:d2:ec:2a:89:4b:
                    f9:35:88:14:33:47:4e:2e:05:79:01:ed:64:36:76:
                    b9:f8:85:cd:01:88:ac:c5:b2:b1:59:b8:cd:5a:f4:
                    09:09:38:9b:da:5a:cf:ce:78:99:1f:49:3d:41:d6:
                    06:7c:52:99:c8:97:d1:b3:80:3a:a2:4f:36:c4:c5:
                    96:30:77:31:38:c8:70:cc:e1:67:06:b3:2b:2f:93:
                    b5:69:cf:83:7e:88:53:9b:0f:46:21:4c:d6:05:36:
                    44:99:60:68:47:e5:32:01:12:d4:10:73:ae:9a:34:
                    94:fa:6e:b8:58:4f:7b:5b:8a:92:97:ad:fd:97:b9:
                    75:ca:c2:d4:45:7d:17:6b:cd:2f:f3:63:7a:0e:30:
                    b5:0b:a9:d9:a6:7c:74:60:9d:cc:09:03:43:f1:0f:
                    90:d3:b7:fe:6c:9f:d9:cd:78:4b:15:ae:8c:5b:f9:
                    99:81
                Exponent: 65537 (0x10001)
        X509v3 extensions:
            X509v3 Basic Constraints: 
                CA:TRUE
            X509v3 Subject Key Identifier: 
                73:B0:1C:A4:2F:82:CB:CF:47:A5:38:D7:B0:04:82:3A:7E:72:15:21
            X509v3 Authority Key Identifier: 
                keyid:73:B0:1C:A4:2F:82:CB:CF:47:A5:38:D7:B0:04:82:3A:7E:72:15:21
                DirName:/C=US/ST=Washington/L=Seattle/O=wolfSSL/OU=Engineering/CN=wolfSSL root CA/emailAddress=info@wolfssl.com
                serial:63

            X509v3 Key Usage: 
                Certificate Sign, CRL Sign
            Authority Information Access: 
                OCSP - URI:http://127.0.0.1:22220

    Signature Algorithm: sha256WithRSAEncryption
         31:d9:c7:b1:d1:51:82:0d:44:80:cf:70:a6:0e:61:79:81:50:
         21:fb:48:fb:d5:6c:ea:e6:dc:d1:7c:14:a8:16:ca:50:62:d8:
         db:f0:fe:37:66:96:67:e0:a0:22:26:97:35:d7:74:48:75:cc:
         17:d4:7f:e0:55:e7:14:03:dc:a7:91:7d:f1:67:c7:bb:c3:70:
         ea:a1:6f:ba:d0:f8:f7:a6:65:f8:a6:59:4c:9c:59:5b:b9:95:
         9d:5b:6c:6c:7c:69:c1:d8:81:91:69:48:c5:87:69:30:0b:42:
         c0:60:36:cf:8b:35:50:53:62:20:b2:e4:77:84:37:52:8e:7d:
         2a:e6:33:08:21:29:dc:04:4c:eb:78:97:95:ab:27:fb:60:ff:
         13:cb:98:dd:5f:61:92:38:33:95:1c:55:a7:9c:0a:43:fa:ed:
         65:b9:a9:58:b9:1a:7a:25:84:1c:50:25:f4:49:e5:80:94:cb:
         65:79:e6:a9:d8:71:3f:a0:e0:96:93:5a:48:8e:dc:84:d7:9f:
         84:7b:64:e8:49:82:31:f6:7e:4a:b8:26:f9:1f:ff:07:6a:0c:
         c9:f6:64:a3:70:13:6f:20:5a:e3:20:91:c2:34:06:c0:53:66:
         cc:8f:86:f4:a5:a3:25:27:cd:82:8f:b6:12:3c:8d:b7:6e:86:
         16:f7:d5:9e
-----BEGIN CERTIFICATE-----
MIIE5jCCA86gAwIBAgIBYzANBgkqhkiG9w0BAQsFADCBlzELMAkGA1UEBhMCVVMx
EzARBgNVBAgMCldhc2hpbmd0b24xEDAOBgNVBAcMB1NlYXR0bGUxEDAOBgNVBAoM
B3dvbGZTU0wxFDASBgNVBAsMC0VuZ2luZWVyaW5nMRgwFgYDVQQDDA93b2xmU1NM
IHJvb3QgQ0ExHzAdBgkqhkiG9w0BCQEWEGluZm9Ad29sZnNzbC5jb20wHhcNMjEw
NzA0MDQzOTIyWhcNMjQwMzMwMDQzOTIyWjCBlzELMAkGA1UEBhMCVVMxEzARBgNV
BAgMCldhc2hpbmd0b24xEDAOBgNVBAcMB1NlYXR0bGUxEDAOBgNVBAoMB3dvbGZT
U0wxFDASBgNVBAsMC0VuZ2luZWVyaW5nMRgwFgYDVQQDDA93b2xmU1NMIHJvb3Qg
Q0ExHzAdBgkqhkiG9w0BCQEWEGluZm9Ad29sZnNzbC5jb20wggEiMA0GCSqGSIb3
DQEBAQUAA4IBDwAwggEKAoIBAQCrLLQvHQYJ704phoR+zL+meXzwwMFkJYx1txAF
ykgnDA4yHLD+mYU5trmi9yf/bTyMFnMpIX+LplRxkK3MBbmfFccKP19p9ApfjHG1
LL9m4gOaMvTS7CqJS/k1iBQzR04uBXkB7WQ2drn4hc0BiKzFsrFZuM1a9AkJOJva
Ws/OeJkfST1B1gZ8UpnIl9GzgDqiTzbExZYwdzE4yHDM4WcGsysvk7Vpz4N+iFOb
D0YhTNYFNkSZYGhH5TIBEtQQc66aNJT6brhYT3tbipKXrf2XuXXKwtRFfRdrzS/z
Y3oOMLULqdmmfHRgncwJA0PxD5DTt/5sn9nNeEsVroxb+ZmBAgMBAAGjggE5MIIB
NTAMBgNVHRMEBTADAQH/MB0GA1UdDgQWBBRzsBykL4LLz0elONewBII6fnIVITCB
xAYDVR0jBIG8MIG5gBRzsBykL4LLz0elONewBII6fnIVIaGBnaSBmjCBlzELMAkG
A1UEBhMCVVMxEzARBgNVBAgMCldhc2hpbmd0b24xEDAOBgNVBAcMB1NlYXR0bGUx
EDAOBgNVBAoMB3dvbGZTU0wxFDASBgNVBAsMC0VuZ2luZWVyaW5nMRgwFgYDVQQD
DA93b2xmU1NMIHJvb3QgQ0ExHzAdBgkqhkiG9w0BCQEWEGluZm9Ad29sZnNzbC5j
b22CAWMwCwYDVR0PBAQDAgEGMDIGCCsGAQUFBwEBBCYwJDAiBggrBgEFBQcwAYYW
aHR0cDovLzEyNy4wLjAuMToyMjIyMDANBgkqhkiG9w0BAQsFAAOCAQEAMdnHsdFR
gg1EgM9wpg5heYFQIftI+9Vs6ubc0XwUqBbKUGLY2/D+N2aWZ+CgIiaXNdd0SHXM
F9R/4FXnFAPcp5F98WfHu8Nw6qFvutD496Zl+KZZTJxZW7mVnVtsbHxpwdiBkWlI
xYdpMAtCwGA2z4s1UFNiILLkd4Q3Uo59KuYzCCEp3ARM63iXlasn+2D/E8uY3V9h
kjgzlRxVp5wKQ/rtZbmpWLkaeiWEHFAl9EnlgJTLZXnmqdhxP6DglpNaSI7chNef
hHtk6EmCMfZ+Srgm+R//B2oMyfZko3ATbyBa4yCRwjQGwFNmzI+G9KWjJSfNgo+2
EjyNt26GFvfVng==
-----END CERTIFICATE-----
