Certificate:
    Data:
        Version: 3 (0x2)
        Serial Number: 6 (0x6)
        Signature Algorithm: sha256WithRSAEncryption
        Issuer: C = US, ST = Washington, L = Seattle, O = wolfSSL, OU = Engineering, CN = wolfSSL intermediate CA 1, emailAddress = info@wolfssl.com
        Validity
            Not Before: Feb  5 21:00:55 2023 GMT
            Not After : Nov  1 21:00:55 2025 GMT
        Subject: C = US, ST = Washington, L = Seattle, O = wolfSSL, OU = Engineering, CN = www2.wolfssl.com, emailAddress = info@wolfssl.com
        Subject Public Key Info:
            Public Key Algorithm: rsaEncryption
                RSA Public-Key: (2048 bit)
                Modulus:
                    00:c6:35:8a:e8:aa:bd:33:c9:5e:84:43:67:42:65:
                    2a:3c:e3:89:b4:a6:67:a1:3b:ee:6d:85:d1:d3:2b:
                    6e:b1:62:d4:f1:22:43:a0:d5:b7:a5:7d:b5:f5:6c:
                    09:06:7c:8c:ef:87:af:4f:34:ce:27:eb:f3:4a:37:
                    57:c3:d7:d8:ee:e4:a0:77:65:2c:a7:c2:10:65:6b:
                    7b:48:c4:d8:28:fe:4c:4e:4f:7e:2f:20:c4:49:5b:
                    71:38:40:0d:36:a3:57:b3:44:da:be:cd:54:14:15:
                    66:0f:d3:05:08:f2:2e:03:67:2e:5c:5d:e1:b0:e6:
                    c0:25:8f:58:77:5b:d3:d7:a8:22:ea:56:d3:0e:01:
                    6d:38:34:56:47:aa:12:c4:ba:2a:ef:ec:18:f5:d4:
                    db:b9:fa:6f:dc:50:eb:ee:10:a2:14:b5:9a:12:e1:
                    e3:85:0f:79:14:b8:70:6d:0d:1c:1d:38:57:85:6a:
                    82:0c:d6:bd:2c:bf:20:f1:28:2e:f6:34:80:a7:0d:
                    32:82:35:4f:c1:b1:e5:9e:26:d5:f8:b9:39:57:43:
                    ef:ed:f1:10:5c:3e:32:ba:d9:e4:9e:40:cd:28:ea:
                    26:46:9b:a9:34:8d:9f:b9:fd:45:7d:14:f7:ce:ca:
                    3b:85:87:a7:64:74:9c:65:29:18:b3:f5:b1:ad:92:
                    62:39
                Exponent: 65537 (0x10001)
        X509v3 extensions:
            X509v3 Basic Constraints: 
                CA:FALSE
            X509v3 Subject Key Identifier: 
                7D:6D:FD:F6:0B:4F:3F:4A:62:91:F5:F3:13:60:51:86:C3:5A:9F:D6
            X509v3 Authority Key Identifier: 
                keyid:83:C6:3A:89:2C:81:F4:02:D7:9D:4C:E2:2A:C0:71:82:64:44:DA:0E
                DirName:/C=US/ST=Washington/L=Seattle/O=wolfSSL/OU=Engineering/CN=wolfSSL root CA/emailAddress=info@wolfssl.com
                serial:01

            X509v3 Key Usage: 
                Digital Signature, Non Repudiation, Key Encipherment
            Authority Information Access: 
                OCSP - URI:http://127.0.0.1:22221

    Signature Algorithm: sha256WithRSAEncryption
         d5:2f:08:09:1c:4a:9d:2f:d8:61:2c:17:c1:6e:b6:70:a3:41:
         f7:5d:12:5c:0e:51:05:b3:16:e2:02:41:1a:a4:dc:f0:e6:85:
         2b:10:5e:1e:c4:3c:78:1e:16:25:4f:cd:23:a6:1d:36:6b:5a:
         57:13:1d:3d:bb:28:2e:a4:ba:e1:b6:df:b7:56:7b:5c:57:c2:
         f9:b4:9e:cb:cf:c3:64:32:cc:cd:5f:08:1a:ce:9a:e5:ff:9f:
         49:84:0f:f9:78:eb:bd:47:7b:6e:79:e2:15:50:5f:a4:dd:50:
         dc:c5:55:cd:9e:5e:6e:89:18:be:fd:6a:2d:25:fa:cd:a2:85:
         2e:0a:2a:1d:3c:71:d3:cb:2f:7f:1c:92:ec:b7:64:f6:15:85:
         82:4a:0c:e5:b2:a0:81:bc:c5:3a:7c:51:60:18:b5:36:3d:b5:
         68:ef:9e:af:17:0b:9e:d4:c5:08:25:fd:e4:53:91:05:b0:a0:
         74:b8:b5:0a:27:af:9b:a3:71:67:28:df:d2:10:41:f3:5a:f7:
         f5:f5:25:1c:ae:97:41:c5:0a:83:50:53:fb:8b:93:5d:67:be:
         ce:c8:fa:18:cf:ef:6f:7f:86:1f:c8:e2:71:d2:81:3d:7b:25:
         9f:4f:f3:c0:bd:6f:13:84:b5:d7:51:67:08:1e:e6:7e:a1:ff:
         f1:1b:aa:3e
-----BEGIN CERTIFICATE-----
MIIE7jCCA9agAwIBAgIBBjANBgkqhkiG9w0BAQsFADCBoTELMAkGA1UEBhMCVVMx
EzARBgNVBAgMCldhc2hpbmd0b24xEDAOBgNVBAcMB1NlYXR0bGUxEDAOBgNVBAoM
B3dvbGZTU0wxFDASBgNVBAsMC0VuZ2luZWVyaW5nMSIwIAYDVQQDDBl3b2xmU1NM
IGludGVybWVkaWF0ZSBDQSAxMR8wHQYJKoZIhvcNAQkBFhBpbmZvQHdvbGZzc2wu
Y29tMB4XDTIzMDIwNTIxMDA1NVoXDTI1MTEwMTIxMDA1NVowgZgxCzAJBgNVBAYT
AlVTMRMwEQYDVQQIDApXYXNoaW5ndG9uMRAwDgYDVQQHDAdTZWF0dGxlMRAwDgYD
VQQKDAd3b2xmU1NMMRQwEgYDVQQLDAtFbmdpbmVlcmluZzEZMBcGA1UEAwwQd3d3
Mi53b2xmc3NsLmNvbTEfMB0GCSqGSIb3DQEJARYQaW5mb0B3b2xmc3NsLmNvbTCC
ASIwDQYJKoZIhvcNAQEBBQADggEPADCCAQoCggEBAMY1iuiqvTPJXoRDZ0JlKjzj
ibSmZ6E77m2F0dMrbrFi1PEiQ6DVt6V9tfVsCQZ8jO+Hr080zifr80o3V8PX2O7k
oHdlLKfCEGVre0jE2Cj+TE5Pfi8gxElbcThADTajV7NE2r7NVBQVZg/TBQjyLgNn
Llxd4bDmwCWPWHdb09eoIupW0w4BbTg0VkeqEsS6Ku/sGPXU27n6b9xQ6+4QohS1
mhLh44UPeRS4cG0NHB04V4VqggzWvSy/IPEoLvY0gKcNMoI1T8Gx5Z4m1fi5OVdD
7+3xEFw+MrrZ5J5AzSjqJkabqTSNn7n9RX0U987KO4WHp2R0nGUpGLP1sa2SYjkC
AwEAAaOCATYwggEyMAkGA1UdEwQCMAAwHQYDVR0OBBYEFH1t/fYLTz9KYpH18xNg
UYbDWp/WMIHEBgNVHSMEgbwwgbmAFIPGOoksgfQC151M4irAcYJkRNoOoYGdpIGa
MIGXMQswCQYDVQQGEwJVUzETMBEGA1UECAwKV2FzaGluZ3RvbjEQMA4GA1UEBwwH
U2VhdHRsZTEQMA4GA1UECgwHd29sZlNTTDEUMBIGA1UECwwLRW5naW5lZXJpbmcx
GDAWBgNVBAMMD3dvbGZTU0wgcm9vdCBDQTEfMB0GCSqGSIb3DQEJARYQaW5mb0B3
b2xmc3NsLmNvbYIBATALBgNVHQ8EBAMCBeAwMgYIKwYBBQUHAQEEJjAkMCIGCCsG
AQUFBzABhhZodHRwOi8vMTI3LjAuMC4xOjIyMjIxMA0GCSqGSIb3DQEBCwUAA4IB
AQDVLwgJHEqdL9hhLBfBbrZwo0H3XRJcDlEFsxbiAkEapNzw5oUrEF4exDx4HhYl
T80jph02a1pXEx09uygupLrhtt+3VntcV8L5tJ7Lz8NkMszNXwgazprl/59JhA/5
eOu9R3tueeIVUF+k3VDcxVXNnl5uiRi+/WotJfrNooUuCiodPHHTyy9/HJLst2T2
FYWCSgzlsqCBvMU6fFFgGLU2PbVo756vFwue1MUIJf3kU5EFsKB0uLUKJ6+bo3Fn
KN/SEEHzWvf19SUcrpdBxQqDUFP7i5NdZ77OyPoYz+9vf4YfyOJx0oE9eyWfT/PA
vW8ThLXXUWcIHuZ+of/xG6o+
-----END CERTIFICATE-----
Certificate:
    Data:
        Version: 3 (0x2)
        Serial Number: 1 (0x1)
        Signature Algorithm: sha256WithRSAEncryption
        Issuer: C = US, ST = Washington, L = Seattle, O = wolfSSL, OU = Engineering, CN = wolfSSL root CA, emailAddress = info@wolfssl.com
        Validity
            Not Before: Feb  5 21:00:55 2023 GMT
            Not After : Nov  1 21:00:55 2025 GMT
        Subject: C = US, ST = Washington, L = Seattle, O = wolfSSL, OU = Engineering, CN = wolfSSL intermediate CA 1, emailAddress = info@wolfssl.com
        Subject Public Key Info:
            Public Key Algorithm: rsaEncryption
                RSA Public-Key: (2048 bit)
                Modulus:
                    00:de:b4:c8:5c:77:e0:2d:b1:f5:b9:ad:16:47:35:
                    a0:35:65:65:c6:e1:40:ab:1e:b4:b9:13:b7:cb:8c:
                    bb:77:a5:76:da:6d:87:87:f6:4a:4d:13:e4:26:3e:
                    27:87:ee:5b:c7:6a:3f:45:30:61:55:5c:f6:35:d1:
                    65:fa:98:11:a3:a7:55:d5:be:91:82:4b:fc:be:90:
                    d6:50:53:63:9a:2c:22:e1:35:11:dc:78:02:97:8a:
                    e4:46:92:9c:53:08:76:de:1f:53:b6:b8:ca:77:3e:
                    79:6e:bc:d0:e3:0d:30:5b:4c:f6:94:0d:30:29:64:
                    9f:04:e5:db:fb:89:60:67:bb:af:26:83:51:77:24:
                    2f:2b:0b:a1:94:81:10:98:e8:eb:26:a8:1e:7c:e4:
                    c4:6c:67:06:95:55:4a:dd:52:f4:f2:60:6d:01:2b:
                    19:91:35:6d:a4:08:47:06:71:24:00:d9:de:c6:56:
                    f3:8b:53:2c:e2:9a:96:a5:f3:62:e5:c4:e3:23:f2:
                    d2:fc:21:ea:0f:62:76:8d:d5:99:48:ce:dc:58:c4:
                    bb:7f:da:94:2c:80:74:83:c5:e0:b0:15:7e:41:fd:
                    0e:f2:f4:f0:78:76:7b:ad:26:0d:aa:48:96:17:2f:
                    21:e3:95:2b:26:37:f9:aa:80:2f:fe:de:f6:5e:bc:
                    97:7f
                Exponent: 65537 (0x10001)
        X509v3 extensions:
            X509v3 Basic Constraints: 
                CA:TRUE
            X509v3 Subject Key Identifier: 
                83:C6:3A:89:2C:81:F4:02:D7:9D:4C:E2:2A:C0:71:82:64:44:DA:0E
            X509v3 Authority Key Identifier: 
                keyid:73:B0:1C:A4:2F:82:CB:CF:47:A5:38:D7:B0:04:82:3A:7E:72:15:21
                DirName:/C=US/ST=Washington/L=Seattle/O=wolfSSL/OU=Engineering/CN=wolfSSL root CA/emailAddress=info@wolfssl.com
                serial:63

            X509v3 Key Usage: 
                Certificate Sign, CRL Sign
            Authority Information Access: 
                OCSP - URI:http://127.0.0.1:22220

    Signature Algorithm: sha256WithRSAEncryption
         8a:55:c3:2d:b3:5b:61:ce:4d:f7:a4:f0:b0:6f:14:38:f3:82:
         65:68:de:11:17:c5:92:ea:e2:12:41:eb:df:ed:bf:b2:b5:2a:
         66:59:7f:3f:4b:c4:6e:b6:98:33:15:60:ab:18:52:f0:55:59:
         84:62:9d:17:a5:a6:80:63:78:ea:f9:04:be:52:ea:cf:dc:5c:
         6b:f7:28:7c:b8:12:e7:cc:dc:aa:b0:90:ee:8e:a9:02:31:9e:
         1d:cc:79:14:c2:e7:69:5f:6b:b7:57:f7:d6:69:fb:f8:ac:6f:
         03:a6:1b:71:5c:95:d0:b7:32:46:f6:15:e7:6f:e8:41:d0:1a:
         a2:f8:c9:a5:4e:b6:27:42:17:8c:ae:94:99:f5:16:41:62:77:
         e5:ac:df:3e:09:1b:c0:f8:80:92:d2:ca:aa:b9:c3:d8:aa:2a:
         ca:d9:6a:90:e2:c3:17:ea:38:7c:3b:69:ce:9b:c8:6f:0d:82:
         c6:1b:30:1d:a9:e1:fe:0b:48:1f:3b:0b:8e:f5:06:99:34:37:
         6f:b1:3d:3b:97:c8:5f:d4:3a:e4:52:1c:39:9e:f1:12:fd:22:
         59:35:a5:43:dd:4e:5c:e7:90:08:26:60:a6:4d:e8:80:ad:0f:
         3f:d0:b8:7e:7b:dc:d2:dc:d2:f8:3b:be:72:43:aa:63:d9:96:
         9f:d3:63:17
-----BEGIN CERTIFICATE-----
MIIE8DCCA9igAwIBAgIBATANBgkqhkiG9w0BAQsFADCBlzELMAkGA1UEBhMCVVMx
EzARBgNVBAgMCldhc2hpbmd0b24xEDAOBgNVBAcMB1NlYXR0bGUxEDAOBgNVBAoM
B3dvbGZTU0wxFDASBgNVBAsMC0VuZ2luZWVyaW5nMRgwFgYDVQQDDA93b2xmU1NM
IHJvb3QgQ0ExHzAdBgkqhkiG9w0BCQEWEGluZm9Ad29sZnNzbC5jb20wHhcNMjMw
MjA1MjEwMDU1WhcNMjUxMTAxMjEwMDU1WjCBoTELMAkGA1UEBhMCVVMxEzARBgNV
BAgMCldhc2hpbmd0b24xEDAOBgNVBAcMB1NlYXR0bGUxEDAOBgNVBAoMB3dvbGZT
U0wxFDASBgNVBAsMC0VuZ2luZWVyaW5nMSIwIAYDVQQDDBl3b2xmU1NMIGludGVy
bWVkaWF0ZSBDQSAxMR8wHQYJKoZIhvcNAQkBFhBpbmZvQHdvbGZzc2wuY29tMIIB
IjANBgkqhkiG9w0BAQEFAAOCAQ8AMIIBCgKCAQEA3rTIXHfgLbH1ua0WRzWgNWVl
xuFAqx60uRO3y4y7d6V22m2Hh/ZKTRPkJj4nh+5bx2o/RTBhVVz2NdFl+pgRo6dV
1b6Rgkv8vpDWUFNjmiwi4TUR3HgCl4rkRpKcUwh23h9TtrjKdz55brzQ4w0wW0z2
lA0wKWSfBOXb+4lgZ7uvJoNRdyQvKwuhlIEQmOjrJqgefOTEbGcGlVVK3VL08mBt
ASsZkTVtpAhHBnEkANnexlbzi1Ms4pqWpfNi5cTjI/LS/CHqD2J2jdWZSM7cWMS7
f9qULIB0g8XgsBV+Qf0O8vTweHZ7rSYNqkiWFy8h45UrJjf5qoAv/t72XryXfwID
AQABo4IBOTCCATUwDAYDVR0TBAUwAwEB/zAdBgNVHQ4EFgQUg8Y6iSyB9ALXnUzi
KsBxgmRE2g4wgcQGA1UdIwSBvDCBuYAUc7AcpC+Cy89HpTjXsASCOn5yFSGhgZ2k
gZowgZcxCzAJBgNVBAYTAlVTMRMwEQYDVQQIDApXYXNoaW5ndG9uMRAwDgYDVQQH
DAdTZWF0dGxlMRAwDgYDVQQKDAd3b2xmU1NMMRQwEgYDVQQLDAtFbmdpbmVlcmlu
ZzEYMBYGA1UEAwwPd29sZlNTTCByb290IENBMR8wHQYJKoZIhvcNAQkBFhBpbmZv
QHdvbGZzc2wuY29tggFjMAsGA1UdDwQEAwIBBjAyBggrBgEFBQcBAQQmMCQwIgYI
KwYBBQUHMAGGFmh0dHA6Ly8xMjcuMC4wLjE6MjIyMjAwDQYJKoZIhvcNAQELBQAD
ggEBAIpVwy2zW2HOTfek8LBvFDjzgmVo3hEXxZLq4hJB69/tv7K1KmZZfz9LxG62
mDMVYKsYUvBVWYRinRelpoBjeOr5BL5S6s/cXGv3KHy4EufM3KqwkO6OqQIxnh3M
eRTC52lfa7dX99Zp+/isbwOmG3FcldC3Mkb2Fedv6EHQGqL4yaVOtidCF4yulJn1
FkFid+Ws3z4JG8D4gJLSyqq5w9iqKsrZapDiwxfqOHw7ac6byG8NgsYbMB2p4f4L
SB87C471Bpk0N2+xPTuXyF/UOuRSHDme8RL9Ilk1pUPdTlznkAgmYKZN6ICtDz/Q
uH573NLc0vg7vnJDqmPZlp/TYxc=
-----END CERTIFICATE-----
Certificate:
    Data:
        Version: 3 (0x2)
        Serial Number: 99 (0x63)
        Signature Algorithm: sha256WithRSAEncryption
        Issuer: C = US, ST = Washington, L = Seattle, O = wolfSSL, OU = Engineering, CN = wolfSSL root CA, emailAddress = info@wolfssl.com
        Validity
            Not Before: Feb  5 21:00:55 2023 GMT
            Not After : Nov  1 21:00:55 2025 GMT
        Subject: C = US, ST = Washington, L = Seattle, O = wolfSSL, OU = Engineering, CN = wolfSSL root CA, emailAddress = info@wolfssl.com
        Subject Public Key Info:
            Public Key Algorithm: rsaEncryption
                RSA Public-Key: (2048 bit)
                Modulus:
                    00:ab:2c:b4:2f:1d:06:09:ef:4e:29:86:84:7e:cc:
                    bf:a6:79:7c:f0:c0:c1:64:25:8c:75:b7:10:05:ca:
                    48:27:0c:0e:32:1c:b0:fe:99:85:39:b6:b9:a2:f7:
                    27:ff:6d:3c:8c:16:73:29:21:7f:8b:a6:54:71:90:
                    ad:cc:05:b9:9f:15:c7:0a:3f:5f:69:f4:0a:5f:8c:
                    71:b5:2c:bf:66:e2:03:9a:32:f4:d2:ec:2a:89:4b:
                    f9:35:88:14:33:47:4e:2e:05:79:01:ed:64:36:76:
                    b9:f8:85:cd:01:88:ac:c5:b2:b1:59:b8:cd:5a:f4:
                    09:09:38:9b:da:5a:cf:ce:78:99:1f:49:3d:41:d6:
                    06:7c:52:99:c8:97:d1:b3:80:3a:a2:4f:36:c4:c5:
                    96:30:77:31:38:c8:70:cc:e1:67:06:b3:2b:2f:93:
                    b5:69:cf:83:7e:88:53:9b:0f:46:21:4c:d6:05:36:
                    44:99:60:68:47:e5:32:01:12:d4:10:73:ae:9a:34:
                    94:fa:6e:b8:58:4f:7b:5b:8a:92:97:ad:fd:97:b9:
                    75:ca:c2:d4:45:7d:17:6b:cd:2f:f3:63:7a:0e:30:
                    b5:0b:a9:d9:a6:7c:74:60:9d:cc:09:03:43:f1:0f:
                    90:d3:b7:fe:6c:9f:d9:cd:78:4b:15:ae:8c:5b:f9:
                    99:81
                Exponent: 65537 (0x10001)
        X509v3 extensions:
            X509v3 Basic Constraints: 
                CA:TRUE
            X509v3 Subject Key Identifier: 
                73:B0:1C:A4:2F:82:CB:CF:47:A5:38:D7:B0:04:82:3A:7E:72:15:21
            X509v3 Authority Key Identifier: 
                keyid:73:B0:1C:A4:2F:82:CB:CF:47:A5:38:D7:B0:04:82:3A:7E:72:15:21
                DirName:/C=US/ST=Washington/L=Seattle/O=wolfSSL/OU=Engineering/CN=wolfSSL root CA/emailAddress=info@wolfssl.com
                serial:63

            X509v3 Key Usage: 
                Certificate Sign, CRL Sign
            Authority Information Access: 
                OCSP - URI:http://127.0.0.1:22220

    Signature Algorithm: sha256WithRSAEncryption
         a2:d9:fb:5f:18:5c:07:91:b4:e2:c8:8d:2c:54:34:c0:ec:d0:
         2e:04:77:f3:dc:d9:1b:53:4e:90:62:c4:7b:41:90:2c:1f:9b:
         8f:41:0b:12:14:4a:d0:d6:1a:4c:d4:d2:30:08:5c:a7:f6:a9:
         1b:49:23:4f:63:ea:6b:4d:e4:4c:55:fc:e2:27:65:de:16:1c:
         9f:30:bb:16:c8:2b:28:ad:26:91:40:bc:51:35:72:5f:54:bb:
         6f:c1:a2:ad:e0:82:a0:9d:d1:30:ba:b6:1c:9d:84:a1:8f:43:
         60:81:ef:53:76:6b:90:e8:fb:85:69:98:10:ba:13:52:44:11:
         1c:67:48:e0:27:30:82:da:86:89:58:43:ea:0b:c8:05:77:29:
         72:f1:6e:29:93:d8:79:1a:c6:80:80:31:e5:45:78:94:b9:98:
         4e:cf:64:7b:b5:73:40:60:09:5e:39:d6:8c:d8:6e:74:53:e3:
         e7:00:c5:de:7c:46:91:11:e7:22:86:b3:c2:3c:cd:3f:14:9b:
         5d:7b:d9:22:af:0f:13:93:c1:27:a8:95:20:f7:bb:9f:9b:f8:
         e2:f7:32:23:2f:3d:2f:96:67:b6:ec:c9:95:2b:12:e5:cc:a9:
         99:83:b2:0b:6d:3c:21:4f:41:3d:76:49:45:12:e4:d8:7d:2e:
         da:23:a2:b8
-----BEGIN CERTIFICATE-----
MIIE5jCCA86gAwIBAgIBYzANBgkqhkiG9w0BAQsFADCBlzELMAkGA1UEBhMCVVMx
EzARBgNVBAgMCldhc2hpbmd0b24xEDAOBgNVBAcMB1NlYXR0bGUxEDAOBgNVBAoM
B3dvbGZTU0wxFDASBgNVBAsMC0VuZ2luZWVyaW5nMRgwFgYDVQQDDA93b2xmU1NM
IHJvb3QgQ0ExHzAdBgkqhkiG9w0BCQEWEGluZm9Ad29sZnNzbC5jb20wHhcNMjMw
MjA1MjEwMDU1WhcNMjUxMTAxMjEwMDU1WjCBlzELMAkGA1UEBhMCVVMxEzARBgNV
BAgMCldhc2hpbmd0b24xEDAOBgNVBAcMB1NlYXR0bGUxEDAOBgNVBAoMB3dvbGZT
U0wxFDASBgNVBAsMC0VuZ2luZWVyaW5nMRgwFgYDVQQDDA93b2xmU1NMIHJvb3Qg
Q0ExHzAdBgkqhkiG9w0BCQEWEGluZm9Ad29sZnNzbC5jb20wggEiMA0GCSqGSIb3
DQEBAQUAA4IBDwAwggEKAoIBAQCrLLQvHQYJ704phoR+zL+meXzwwMFkJYx1txAF
ykgnDA4yHLD+mYU5trmi9yf/bTyMFnMpIX+LplRxkK3MBbmfFccKP19p9ApfjHG1
LL9m4gOaMvTS7CqJS/k1iBQzR04uBXkB7WQ2drn4hc0BiKzFsrFZuM1a9AkJOJva
Ws/OeJkfST1B1gZ8UpnIl9GzgDqiTzbExZYwdzE4yHDM4WcGsysvk7Vpz4N+iFOb
D0YhTNYFNkSZYGhH5TIBEtQQc66aNJT6brhYT3tbipKXrf2XuXXKwtRFfRdrzS/z
Y3oOMLULqdmmfHRgncwJA0PxD5DTt/5sn9nNeEsVroxb+ZmBAgMBAAGjggE5MIIB
NTAMBgNVHRMEBTADAQH/MB0GA1UdDgQWBBRzsBykL4LLz0elONewBII6fnIVITCB
xAYDVR0jBIG8MIG5gBRzsBykL4LLz0elONewBII6fnIVIaGBnaSBmjCBlzELMAkG
A1UEBhMCVVMxEzARBgNVBAgMCldhc2hpbmd0b24xEDAOBgNVBAcMB1NlYXR0bGUx
EDAOBgNVBAoMB3dvbGZTU0wxFDASBgNVBAsMC0VuZ2luZWVyaW5nMRgwFgYDVQQD
DA93b2xmU1NMIHJvb3QgQ0ExHzAdBgkqhkiG9w0BCQEWEGluZm9Ad29sZnNzbC5j
b22CAWMwCwYDVR0PBAQDAgEGMDIGCCsGAQUFBwEBBCYwJDAiBggrBgEFBQcwAYYW
aHR0cDovLzEyNy4wLjAuMToyMjIyMDANBgkqhkiG9w0BAQsFAAOCAQEAotn7Xxhc
B5G04siNLFQ0wOzQLgR389zZG1NOkGLEe0GQLB+bj0ELEhRK0NYaTNTSMAhcp/ap
G0kjT2Pqa03kTFX84idl3hYcnzC7FsgrKK0mkUC8UTVyX1S7b8GireCCoJ3RMLq2
HJ2EoY9DYIHvU3ZrkOj7hWmYELoTUkQRHGdI4CcwgtqGiVhD6gvIBXcpcvFuKZPY
eRrGgIAx5UV4lLmYTs9ke7VzQGAJXjnWjNhudFPj5wDF3nxGkRHnIoazwjzNPxSb
XXvZIq8PE5PBJ6iVIPe7n5v44vcyIy89L5ZntuzJlSsS5cypmYOyC208IU9BPXZJ
RRLk2H0u2iOiuA==
-----END CERTIFICATE-----
