Certificate:
    Data:
        Version: 3 (0x2)
        Serial Number: 7 (0x7)
        Signature Algorithm: sha256WithRSAEncryption
        Issuer: C = US, ST = Washington, L = Seattle, O = wolfSSL, OU = Engineering, CN = wolfSSL intermediate CA 2, emailAddress = info@wolfssl.com
        Validity
            Not Before: Feb  5 21:00:55 2023 GMT
            Not After : Nov  1 21:00:55 2025 GMT
        Subject: C = US, ST = Washington, L = Seattle, O = wolfSSL, OU = Engineering, CN = www3.wolfssl.com, emailAddress = info@wolfssl.com
        Subject Public Key Info:
            Public Key Algorithm: rsaEncryption
                RSA Public-Key: (2048 bit)
                Modulus:
                    00:be:19:65:1e:17:39:d4:33:fc:97:64:69:80:51:
                    fb:6c:7c:ca:e1:ba:2a:ab:d2:dd:30:61:f3:2e:47:
                    c1:d4:33:c0:ff:53:21:ba:2d:14:a6:b9:7c:66:ca:
                    45:7b:1c:7d:8f:fc:75:f3:9a:69:f1:6c:25:46:a0:
                    92:5d:00:93:e3:22:a6:60:b9:97:05:37:7f:a1:aa:
                    cd:22:81:72:b1:22:47:3d:7c:8d:46:55:bc:32:4d:
                    d2:84:43:5c:15:43:07:22:70:36:39:93:1b:e8:a1:
                    46:bb:02:85:ba:1d:31:ac:b1:3c:84:5b:eb:8f:1f:
                    62:8a:71:52:9e:0b:63:b6:e6:d6:46:cc:19:06:d6:
                    bb:06:81:e4:0b:25:14:6c:63:94:70:1a:27:37:95:
                    24:40:07:30:f5:24:73:c3:bd:f9:0e:5f:b6:cd:4f:
                    18:88:f0:d7:a3:9b:f5:b0:1e:fe:04:03:a5:8d:73:
                    f7:6b:31:74:85:fd:61:fa:9e:53:37:75:90:e6:f8:
                    b5:98:66:e8:52:4d:4a:4c:39:05:65:c1:34:f9:c6:
                    95:27:b0:07:c1:51:96:a8:82:1b:22:cf:41:df:de:
                    b4:94:b7:0d:ba:61:fb:f4:40:7c:a1:fc:a2:29:a3:
                    47:4d:b4:94:9d:7b:51:ec:e4:13:fb:cd:e9:26:ca:
                    a7:93
                Exponent: 65537 (0x10001)
        X509v3 extensions:
            X509v3 Basic Constraints: 
                CA:FALSE
            X509v3 Subject Key Identifier: 
                C1:CD:C0:2C:34:F4:3B:BB:E3:CA:98:35:7D:6A:15:33:94:5C:11:3A
            X509v3 Authority Key Identifier: 
                keyid:05:D1:BA:86:00:A2:EE:2A:05:24:B7:11:AD:2D:60:F1:90:14:8F:17
                DirName:/C=US/ST=Washington/L=Seattle/O=wolfSSL/OU=Engineering/CN=wolfSSL root CA/emailAddress=info@wolfssl.com
                serial:02

            X509v3 Key Usage: 
                Digital Signature, Non Repudiation, Key Encipherment
            Authority Information Access: 
                OCSP - URI:http://127.0.0.1:22222

    Signature Algorithm: sha256WithRSAEncryption
         54:e5:fe:91:e5:63:8d:99:e4:2c:a4:b9:b4:d1:26:eb:39:3f:
         a2:4c:fb:44:ce:4b:ed:cf:e9:d7:b2:17:58:e3:1a:f8:41:4b:
         1d:55:a4:91:00:a1:7e:a0:ba:17:54:fe:b6:b1:ad:41:ec:88:
         c2:39:12:93:09:91:b6:1f:7f:cc:66:e9:97:85:61:de:69:da:
         61:b6:57:43:25:3a:13:7e:69:28:e1:7f:de:b0:95:17:73:1f:
         c5:84:97:8d:fb:f3:ad:f9:ab:7b:e5:a7:e6:20:a1:1d:24:bd:
         c4:2e:d4:9d:29:66:c9:7e:b9:69:36:e7:30:bb:32:91:01:9e:
         b7:a9:f3:bb:10:d2:2a:b6:7b:fa:ef:ab:bc:60:17:ad:64:0e:
         8f:2b:ac:8b:8b:70:ab:9f:bf:4e:f6:62:2b:2b:02:40:47:ae:
         95:17:87:b1:97:c6:b7:a1:a8:17:43:29:33:e9:3f:4b:29:6b:
         a6:a0:c9:35:6d:30:44:9b:51:0a:b7:34:c5:ad:11:b2:7a:b3:
         40:5f:27:1e:4d:8d:65:f8:9f:dc:72:7d:2a:0e:fc:c9:85:7b:
         bd:a8:27:5c:dd:79:0f:61:d3:ad:1f:65:9e:22:0e:91:ee:0d:
         13:ee:d1:be:01:1f:a8:c1:9e:4b:76:6c:e8:f8:fd:9e:04:1e:
         0a:c0:e0:0e
-----BEGIN CERTIFICATE-----
MIIE7jCCA9agAwIBAgIBBzANBgkqhkiG9w0BAQsFADCBoTELMAkGA1UEBhMCVVMx
EzARBgNVBAgMCldhc2hpbmd0b24xEDAOBgNVBAcMB1NlYXR0bGUxEDAOBgNVBAoM
B3dvbGZTU0wxFDASBgNVBAsMC0VuZ2luZWVyaW5nMSIwIAYDVQQDDBl3b2xmU1NM
IGludGVybWVkaWF0ZSBDQSAyMR8wHQYJKoZIhvcNAQkBFhBpbmZvQHdvbGZzc2wu
Y29tMB4XDTIzMDIwNTIxMDA1NVoXDTI1MTEwMTIxMDA1NVowgZgxCzAJBgNVBAYT
AlVTMRMwEQYDVQQIDApXYXNoaW5ndG9uMRAwDgYDVQQHDAdTZWF0dGxlMRAwDgYD
VQQKDAd3b2xmU1NMMRQwEgYDVQQLDAtFbmdpbmVlcmluZzEZMBcGA1UEAwwQd3d3
My53b2xmc3NsLmNvbTEfMB0GCSqGSIb3DQEJARYQaW5mb0B3b2xmc3NsLmNvbTCC
ASIwDQYJKoZIhvcNAQEBBQADggEPADCCAQoCggEBAL4ZZR4XOdQz/JdkaYBR+2x8
yuG6KqvS3TBh8y5HwdQzwP9TIbotFKa5fGbKRXscfY/8dfOaafFsJUagkl0Ak+Mi
pmC5lwU3f6GqzSKBcrEiRz18jUZVvDJN0oRDXBVDByJwNjmTG+ihRrsChbodMayx
PIRb648fYopxUp4LY7bm1kbMGQbWuwaB5AslFGxjlHAaJzeVJEAHMPUkc8O9+Q5f
ts1PGIjw16Ob9bAe/gQDpY1z92sxdIX9YfqeUzd1kOb4tZhm6FJNSkw5BWXBNPnG
lSewB8FRlqiCGyLPQd/etJS3Dbph+/RAfKH8oimjR020lJ17UezkE/vN6SbKp5MC
AwEAAaOCATYwggEyMAkGA1UdEwQCMAAwHQYDVR0OBBYEFMHNwCw09Du748qYNX1q
FTOUXBE6MIHEBgNVHSMEgbwwgbmAFAXRuoYAou4qBSS3Ea0tYPGQFI8XoYGdpIGa
MIGXMQswCQYDVQQGEwJVUzETMBEGA1UECAwKV2FzaGluZ3RvbjEQMA4GA1UEBwwH
U2VhdHRsZTEQMA4GA1UECgwHd29sZlNTTDEUMBIGA1UECwwLRW5naW5lZXJpbmcx
GDAWBgNVBAMMD3dvbGZTU0wgcm9vdCBDQTEfMB0GCSqGSIb3DQEJARYQaW5mb0B3
b2xmc3NsLmNvbYIBAjALBgNVHQ8EBAMCBeAwMgYIKwYBBQUHAQEEJjAkMCIGCCsG
AQUFBzABhhZodHRwOi8vMTI3LjAuMC4xOjIyMjIyMA0GCSqGSIb3DQEBCwUAA4IB
AQBU5f6R5WONmeQspLm00SbrOT+iTPtEzkvtz+nXshdY4xr4QUsdVaSRAKF+oLoX
VP62sa1B7IjCORKTCZG2H3/MZumXhWHeadphtldDJToTfmko4X/esJUXcx/FhJeN
+/Ot+at75afmIKEdJL3ELtSdKWbJfrlpNucwuzKRAZ63qfO7ENIqtnv676u8YBet
ZA6PK6yLi3Crn79O9mIrKwJAR66VF4exl8a3oagXQykz6T9LKWumoMk1bTBEm1EK
tzTFrRGyerNAXyceTY1l+J/ccn0qDvzJhXu9qCdc3XkPYdOtH2WeIg6R7g0T7tG+
AR+owZ5Ldmzo+P2eBB4KwOAO
-----END CERTIFICATE-----
Certificate:
    Data:
        Version: 3 (0x2)
        Serial Number: 2 (0x2)
        Signature Algorithm: sha256WithRSAEncryption
        Issuer: C = US, ST = Washington, L = Seattle, O = wolfSSL, OU = Engineering, CN = wolfSSL root CA, emailAddress = info@wolfssl.com
        Validity
            Not Before: Feb  5 21:00:55 2023 GMT
            Not After : Nov  1 21:00:55 2025 GMT
        Subject: C = US, ST = Washington, L = Seattle, O = wolfSSL, OU = Engineering, CN = wolfSSL intermediate CA 2, emailAddress = info@wolfssl.com
        Subject Public Key Info:
            Public Key Algorithm: rsaEncryption
                RSA Public-Key: (2048 bit)
                Modulus:
                    00:d0:20:3c:35:19:6f:2c:44:b4:7e:42:c7:75:b4:
                    6a:2b:a9:23:85:bf:87:b4:ee:ca:d7:4b:1f:31:d7:
                    11:02:a1:ab:58:3d:fb:dc:51:ca:3a:1d:1f:95:a6:
                    56:82:f7:8f:ff:6b:50:bb:ea:10:e1:47:1d:35:77:
                    2e:4b:28:c5:53:46:23:2b:82:fd:5a:d3:f4:21:db:
                    0e:e0:f2:76:33:47:b3:00:be:3a:b1:23:98:53:eb:
                    ea:a0:de:1b:cc:05:4e:ee:63:a8:2c:93:24:d6:98:
                    78:74:03:e4:c8:89:43:61:f1:25:b8:cd:3b:87:c1:
                    31:25:fd:ba:4c:fc:29:94:45:9e:69:d7:67:0a:8a:
                    8e:d5:52:93:30:a2:0e:dd:6a:1c:b0:94:77:db:52:
                    52:b7:89:21:be:96:75:24:cb:e9:49:df:81:9d:9d:
                    f8:55:7d:01:2a:eb:78:03:12:e2:20:6e:db:63:35:
                    cd:a1:96:f0:f8:8c:20:35:69:87:01:ca:b4:54:36:
                    a0:15:e0:23:7d:b9:fb:be:99:05:50:f0:bf:ec:7f:
                    12:e1:3d:75:15:4e:c8:c2:30:e6:8b:fe:e5:8b:55:
                    f8:44:5e:e5:e3:56:e0:66:2d:6f:42:5a:45:6b:96:
                    aa:c7:5d:41:08:5f:ce:d7:dc:9f:20:e4:46:78:ff:
                    d9:99
                Exponent: 65537 (0x10001)
        X509v3 extensions:
            X509v3 Basic Constraints: 
                CA:TRUE
            X509v3 Subject Key Identifier: 
                05:D1:BA:86:00:A2:EE:2A:05:24:B7:11:AD:2D:60:F1:90:14:8F:17
            X509v3 Authority Key Identifier: 
                keyid:73:B0:1C:A4:2F:82:CB:CF:47:A5:38:D7:B0:04:82:3A:7E:72:15:21
                DirName:/C=US/ST=Washington/L=Seattle/O=wolfSSL/OU=Engineering/CN=wolfSSL root CA/emailAddress=info@wolfssl.com
                serial:63

            X509v3 Key Usage: 
                Certificate Sign, CRL Sign
            Authority Information Access: 
                OCSP - URI:http://127.0.0.1:22220

    Signature Algorithm: sha256WithRSAEncryption
         9a:37:2a:19:04:b1:a5:62:46:a4:62:b2:21:03:bf:74:7f:2a:
         bc:53:c0:76:f1:f9:37:b8:09:a3:c5:67:e7:4f:f6:53:bb:f8:
         3b:9e:02:e9:3c:8e:05:16:07:f5:5d:28:b5:66:77:b0:e6:aa:
         a2:32:1e:3a:d7:b0:8e:35:2d:6d:40:c0:0d:b7:33:f8:e4:76:
         db:de:3a:8c:9a:71:9d:b1:62:f7:cf:5e:e2:23:46:a0:80:68:
         06:c3:da:b1:f0:a1:69:7a:5a:9b:10:ae:f2:58:c4:3f:6e:82:
         08:b8:34:dd:c5:a2:d7:b8:b5:9c:ba:50:9a:8d:ab:61:b2:1e:
         1e:63:52:79:ee:14:42:06:8d:e5:6d:7d:a4:02:ac:5d:c1:cb:
         6b:15:a7:c2:e8:1b:3b:d9:dc:3d:39:aa:39:8f:ab:19:76:68:
         71:66:23:87:59:30:f1:0a:67:7c:6e:2c:21:08:55:d8:06:c0:
         d6:5f:f0:cd:32:f7:c1:e1:34:11:af:c5:e0:c6:b3:7e:5e:37:
         08:99:65:54:5e:f9:05:f8:2e:6f:4e:61:6b:be:45:b7:15:e5:
         0a:b2:e5:a3:be:e0:f5:26:be:02:de:86:4f:13:22:be:69:b8:
         fd:2f:4b:ed:b3:df:d9:9a:96:80:f0:11:fb:23:5d:1c:16:5d:
         64:43:a1:ab
-----BEGIN CERTIFICATE-----
MIIE8DCCA9igAwIBAgIBAjANBgkqhkiG9w0BAQsFADCBlzELMAkGA1UEBhMCVVMx
EzARBgNVBAgMCldhc2hpbmd0b24xEDAOBgNVBAcMB1NlYXR0bGUxEDAOBgNVBAoM
B3dvbGZTU0wxFDASBgNVBAsMC0VuZ2luZWVyaW5nMRgwFgYDVQQDDA93b2xmU1NM
IHJvb3QgQ0ExHzAdBgkqhkiG9w0BCQEWEGluZm9Ad29sZnNzbC5jb20wHhcNMjMw
MjA1MjEwMDU1WhcNMjUxMTAxMjEwMDU1WjCBoTELMAkGA1UEBhMCVVMxEzARBgNV
BAgMCldhc2hpbmd0b24xEDAOBgNVBAcMB1NlYXR0bGUxEDAOBgNVBAoMB3dvbGZT
U0wxFDASBgNVBAsMC0VuZ2luZWVyaW5nMSIwIAYDVQQDDBl3b2xmU1NMIGludGVy
bWVkaWF0ZSBDQSAyMR8wHQYJKoZIhvcNAQkBFhBpbmZvQHdvbGZzc2wuY29tMIIB
IjANBgkqhkiG9w0BAQEFAAOCAQ8AMIIBCgKCAQEA0CA8NRlvLES0fkLHdbRqK6kj
hb+HtO7K10sfMdcRAqGrWD373FHKOh0flaZWgveP/2tQu+oQ4UcdNXcuSyjFU0Yj
K4L9WtP0IdsO4PJ2M0ezAL46sSOYU+vqoN4bzAVO7mOoLJMk1ph4dAPkyIlDYfEl
uM07h8ExJf26TPwplEWeaddnCoqO1VKTMKIO3WocsJR321JSt4khvpZ1JMvpSd+B
nZ34VX0BKut4AxLiIG7bYzXNoZbw+IwgNWmHAcq0VDagFeAjfbn7vpkFUPC/7H8S
4T11FU7IwjDmi/7li1X4RF7l41bgZi1vQlpFa5aqx11BCF/O19yfIORGeP/ZmQID
AQABo4IBOTCCATUwDAYDVR0TBAUwAwEB/zAdBgNVHQ4EFgQUBdG6hgCi7ioFJLcR
rS1g8ZAUjxcwgcQGA1UdIwSBvDCBuYAUc7AcpC+Cy89HpTjXsASCOn5yFSGhgZ2k
gZowgZcxCzAJBgNVBAYTAlVTMRMwEQYDVQQIDApXYXNoaW5ndG9uMRAwDgYDVQQH
DAdTZWF0dGxlMRAwDgYDVQQKDAd3b2xmU1NMMRQwEgYDVQQLDAtFbmdpbmVlcmlu
ZzEYMBYGA1UEAwwPd29sZlNTTCByb290IENBMR8wHQYJKoZIhvcNAQkBFhBpbmZv
QHdvbGZzc2wuY29tggFjMAsGA1UdDwQEAwIBBjAyBggrBgEFBQcBAQQmMCQwIgYI
KwYBBQUHMAGGFmh0dHA6Ly8xMjcuMC4wLjE6MjIyMjAwDQYJKoZIhvcNAQELBQAD
ggEBAJo3KhkEsaViRqRisiEDv3R/KrxTwHbx+Te4CaPFZ+dP9lO7+DueAuk8jgUW
B/VdKLVmd7DmqqIyHjrXsI41LW1AwA23M/jkdtveOoyacZ2xYvfPXuIjRqCAaAbD
2rHwoWl6WpsQrvJYxD9uggi4NN3Fote4tZy6UJqNq2GyHh5jUnnuFEIGjeVtfaQC
rF3By2sVp8LoGzvZ3D05qjmPqxl2aHFmI4dZMPEKZ3xuLCEIVdgGwNZf8M0y98Hh
NBGvxeDGs35eNwiZZVRe+QX4Lm9OYWu+RbcV5Qqy5aO+4PUmvgLehk8TIr5puP0v
S+2z39maloDwEfsjXRwWXWRDoas=
-----END CERTIFICATE-----
Certificate:
    Data:
        Version: 3 (0x2)
        Serial Number: 99 (0x63)
        Signature Algorithm: sha256WithRSAEncryption
        Issuer: C = US, ST = Washington, L = Seattle, O = wolfSSL, OU = Engineering, CN = wolfSSL root CA, emailAddress = info@wolfssl.com
        Validity
            Not Before: Feb  5 21:00:55 2023 GMT
            Not After : Nov  1 21:00:55 2025 GMT
        Subject: C = US, ST = Washington, L = Seattle, O = wolfSSL, OU = Engineering, CN = wolfSSL root CA, emailAddress = info@wolfssl.com
        Subject Public Key Info:
            Public Key Algorithm: rsaEncryption
                RSA Public-Key: (2048 bit)
                Modulus:
                    00:ab:2c:b4:2f:1d:06:09:ef:4e:29:86:84:7e:cc:
                    bf:a6:79:7c:f0:c0:c1:64:25:8c:75:b7:10:05:ca:
                    48:27:0c:0e:32:1c:b0:fe:99:85:39:b6:b9:a2:f7:
                    27:ff:6d:3c:8c:16:73:29:21:7f:8b:a6:54:71:90:
                    ad:cc:05:b9:9f:15:c7:0a:3f:5f:69:f4:0a:5f:8c:
                    71:b5:2c:bf:66:e2:03:9a:32:f4:d2:ec:2a:89:4b:
                    f9:35:88:14:33:47:4e:2e:05:79:01:ed:64:36:76:
                    b9:f8:85:cd:01:88:ac:c5:b2:b1:59:b8:cd:5a:f4:
                    09:09:38:9b:da:5a:cf:ce:78:99:1f:49:3d:41:d6:
                    06:7c:52:99:c8:97:d1:b3:80:3a:a2:4f:36:c4:c5:
                    96:30:77:31:38:c8:70:cc:e1:67:06:b3:2b:2f:93:
                    b5:69:cf:83:7e:88:53:9b:0f:46:21:4c:d6:05:36:
                    44:99:60:68:47:e5:32:01:12:d4:10:73:ae:9a:34:
                    94:fa:6e:b8:58:4f:7b:5b:8a:92:97:ad:fd:97:b9:
                    75:ca:c2:d4:45:7d:17:6b:cd:2f:f3:63:7a:0e:30:
                    b5:0b:a9:d9:a6:7c:74:60:9d:cc:09:03:43:f1:0f:
                    90:d3:b7:fe:6c:9f:d9:cd:78:4b:15:ae:8c:5b:f9:
                    99:81
                Exponent: 65537 (0x10001)
        X509v3 extensions:
            X509v3 Basic Constraints: 
                CA:TRUE
            X509v3 Subject Key Identifier: 
                73:B0:1C:A4:2F:82:CB:CF:47:A5:38:D7:B0:04:82:3A:7E:72:15:21
            X509v3 Authority Key Identifier: 
                keyid:73:B0:1C:A4:2F:82:CB:CF:47:A5:38:D7:B0:04:82:3A:7E:72:15:21
                DirName:/C=US/ST=Washington/L=Seattle/O=wolfSSL/OU=Engineering/CN=wolfSSL root CA/emailAddress=info@wolfssl.com
                serial:63

            X509v3 Key Usage: 
                Certificate Sign, CRL Sign
            Authority Information Access: 
                OCSP - URI:http://127.0.0.1:22220

    Signature Algorithm: sha256WithRSAEncryption
         a2:d9:fb:5f:18:5c:07:91:b4:e2:c8:8d:2c:54:34:c0:ec:d0:
         2e:04:77:f3:dc:d9:1b:53:4e:90:62:c4:7b:41:90:2c:1f:9b:
         8f:41:0b:12:14:4a:d0:d6:1a:4c:d4:d2:30:08:5c:a7:f6:a9:
         1b:49:23:4f:63:ea:6b:4d:e4:4c:55:fc:e2:27:65:de:16:1c:
         9f:30:bb:16:c8:2b:28:ad:26:91:40:bc:51:35:72:5f:54:bb:
         6f:c1:a2:ad:e0:82:a0:9d:d1:30:ba:b6:1c:9d:84:a1:8f:43:
         60:81:ef:53:76:6b:90:e8:fb:85:69:98:10:ba:13:52:44:11:
         1c:67:48:e0:27:30:82:da:86:89:58:43:ea:0b:c8:05:77:29:
         72:f1:6e:29:93:d8:79:1a:c6:80:80:31:e5:45:78:94:b9:98:
         4e:cf:64:7b:b5:73:40:60:09:5e:39:d6:8c:d8:6e:74:53:e3:
         e7:00:c5:de:7c:46:91:11:e7:22:86:b3:c2:3c:cd:3f:14:9b:
         5d:7b:d9:22:af:0f:13:93:c1:27:a8:95:20:f7:bb:9f:9b:f8:
         e2:f7:32:23:2f:3d:2f:96:67:b6:ec:c9:95:2b:12:e5:cc:a9:
         99:83:b2:0b:6d:3c:21:4f:41:3d:76:49:45:12:e4:d8:7d:2e:
         da:23:a2:b8
-----BEGIN CERTIFICATE-----
MIIE5jCCA86gAwIBAgIBYzANBgkqhkiG9w0BAQsFADCBlzELMAkGA1UEBhMCVVMx
EzARBgNVBAgMCldhc2hpbmd0b24xEDAOBgNVBAcMB1NlYXR0bGUxEDAOBgNVBAoM
B3dvbGZTU0wxFDASBgNVBAsMC0VuZ2luZWVyaW5nMRgwFgYDVQQDDA93b2xmU1NM
IHJvb3QgQ0ExHzAdBgkqhkiG9w0BCQEWEGluZm9Ad29sZnNzbC5jb20wHhcNMjMw
MjA1MjEwMDU1WhcNMjUxMTAxMjEwMDU1WjCBlzELMAkGA1UEBhMCVVMxEzARBgNV
BAgMCldhc2hpbmd0b24xEDAOBgNVBAcMB1NlYXR0bGUxEDAOBgNVBAoMB3dvbGZT
U0wxFDASBgNVBAsMC0VuZ2luZWVyaW5nMRgwFgYDVQQDDA93b2xmU1NMIHJvb3Qg
Q0ExHzAdBgkqhkiG9w0BCQEWEGluZm9Ad29sZnNzbC5jb20wggEiMA0GCSqGSIb3
DQEBAQUAA4IBDwAwggEKAoIBAQCrLLQvHQYJ704phoR+zL+meXzwwMFkJYx1txAF
ykgnDA4yHLD+mYU5trmi9yf/bTyMFnMpIX+LplRxkK3MBbmfFccKP19p9ApfjHG1
LL9m4gOaMvTS7CqJS/k1iBQzR04uBXkB7WQ2drn4hc0BiKzFsrFZuM1a9AkJOJva
Ws/OeJkfST1B1gZ8UpnIl9GzgDqiTzbExZYwdzE4yHDM4WcGsysvk7Vpz4N+iFOb
D0YhTNYFNkSZYGhH5TIBEtQQc66aNJT6brhYT3tbipKXrf2XuXXKwtRFfRdrzS/z
Y3oOMLULqdmmfHRgncwJA0PxD5DTt/5sn9nNeEsVroxb+ZmBAgMBAAGjggE5MIIB
NTAMBgNVHRMEBTADAQH/MB0GA1UdDgQWBBRzsBykL4LLz0elONewBII6fnIVITCB
xAYDVR0jBIG8MIG5gBRzsBykL4LLz0elONewBII6fnIVIaGBnaSBmjCBlzELMAkG
A1UEBhMCVVMxEzARBgNVBAgMCldhc2hpbmd0b24xEDAOBgNVBAcMB1NlYXR0bGUx
EDAOBgNVBAoMB3dvbGZTU0wxFDASBgNVBAsMC0VuZ2luZWVyaW5nMRgwFgYDVQQD
DA93b2xmU1NMIHJvb3QgQ0ExHzAdBgkqhkiG9w0BCQEWEGluZm9Ad29sZnNzbC5j
b22CAWMwCwYDVR0PBAQDAgEGMDIGCCsGAQUFBwEBBCYwJDAiBggrBgEFBQcwAYYW
aHR0cDovLzEyNy4wLjAuMToyMjIyMDANBgkqhkiG9w0BAQsFAAOCAQEAotn7Xxhc
B5G04siNLFQ0wOzQLgR389zZG1NOkGLEe0GQLB+bj0ELEhRK0NYaTNTSMAhcp/ap
G0kjT2Pqa03kTFX84idl3hYcnzC7FsgrKK0mkUC8UTVyX1S7b8GireCCoJ3RMLq2
HJ2EoY9DYIHvU3ZrkOj7hWmYELoTUkQRHGdI4CcwgtqGiVhD6gvIBXcpcvFuKZPY
eRrGgIAx5UV4lLmYTs9ke7VzQGAJXjnWjNhudFPj5wDF3nxGkRHnIoazwjzNPxSb
XXvZIq8PE5PBJ6iVIPe7n5v44vcyIy89L5ZntuzJlSsS5cypmYOyC208IU9BPXZJ
RRLk2H0u2iOiuA==
-----END CERTIFICATE-----
