Certificate:
    Data:
        Version: 1 (0x0)
        Serial Number: 4096 (0x1000)
    Signature Algorithm: sha256WithRSAEncryption
        Issuer: CN=www.wolfssl.com, ST=Montana, C=US/emailAddress=info@wolfssl.com, OU=Engineering
        Validity
            Not Before: Jul 31 00:00:00 2018 GMT
            Not After : Aug 30 00:00:00 2018 GMT
        Subject: CN=www.wolfssl.com, ST=Montana, C=US/emailAddress=info@wolfssl.com, OU=Engineering
        Subject Public Key Info:
            Public Key Algorithm: rsaEncryption
                Public-Key: (2048 bit)
                Modulus:
                    00:c0:95:08:e1:57:41:f2:71:6d:b7:d2:45:41:27:
                    01:65:c6:45:ae:f2:bc:24:30:b8:95:ce:2f:4e:d6:
                    f6:1c:88:bc:7c:9f:fb:a8:67:7f:fe:5c:9c:51:75:
                    f7:8a:ca:07:e7:35:2f:8f:e1:bd:7b:c0:2f:7c:ab:
                    64:a8:17:fc:ca:5d:7b:ba:e0:21:e5:72:2e:6f:2e:
                    86:d8:95:73:da:ac:1b:53:b9:5f:3f:d7:19:0d:25:
                    4f:e1:63:63:51:8b:0b:64:3f:ad:43:b8:a5:1c:5c:
                    34:b3:ae:00:a0:63:c5:f6:7f:0b:59:68:78:73:a6:
                    8c:18:a9:02:6d:af:c3:19:01:2e:b8:10:e3:c6:cc:
                    40:b4:69:a3:46:33:69:87:6e:c4:bb:17:a6:f3:e8:
                    dd:ad:73:bc:7b:2f:21:b5:fd:66:51:0c:bd:54:b3:
                    e1:6d:5f:1c:bc:23:73:d1:09:03:89:14:d2:10:b9:
                    64:c3:2a:d0:a1:96:4a:bc:e1:d4:1a:5b:c7:a0:c0:
                    c1:63:78:0f:44:37:30:32:96:80:32:23:95:a1:77:
                    ba:13:d2:97:73:e2:5d:25:c9:6a:0d:c3:39:60:a4:
                    b4:b0:69:42:42:09:e9:d8:08:bc:33:20:b3:58:22:
                    a7:aa:eb:c4:e1:e6:61:83:c5:d2:96:df:d9:d0:4f:
                    ad:d7
                Exponent: 65537 (0x10001)
    Signature Algorithm: sha256WithRSAEncryption
         3f:1b:56:f8:6a:e7:1a:c4:58:05:40:d8:63:c9:c2:be:4e:41:
         ac:33:f3:98:bf:d5:88:9e:40:27:30:3c:5e:c0:c4:33:73:9f:
         b4:14:44:cf:06:be:d1:59:65:05:ff:95:cc:dc:59:02:f5:8d:
         e1:c5:13:ed:0d:d3:44:f4:35:37:66:4b:20:6d:41:b3:f3:53:
         43:25:cd:8f:33:74:b7:ac:52:9c:44:f7:e9:62:0a:7b:ea:79:
         35:a7:3b:ef:fa:eb:22:ac:c4:08:cb:9c:0e:4d:8d:82:ea:a3:
         78:f8:18:a4:76:51:73:34:1c:91:ba:e9:43:e6:38:20:4e:f2:
         38:f1:19:48:ec:da:bd:50:ca:b9:11:88:d2:37:77:4f:8d:d6:
         45:98:1c:1d:73:ba:e7:98:72:b5:f3:28:e3:ff:4c:8e:f3:64:
         fc:b0:5e:08:f4:4a:67:00:cd:c3:00:61:44:d6:88:1e:20:51:
         c9:48:6c:63:bc:87:15:d2:0b:07:18:35:f3:c0:eb:95:95:0e:
         7a:ec:a9:f0:91:47:10:50:68:50:a7:2f:f7:55:51:8b:c3:dc:
         08:c3:28:bb:bd:b3:5e:11:c2:07:33:2f:30:00:04:cb:78:b8:
         1f:86:97:39:f0:f8:3b:e7:85:da:a2:e6:05:2e:c7:d0:5c:9f:
         60:af:7b:90
-----BEGIN CERTIFICATE-----
MIIDWTCCAkECAhAAMA0GCSqGSIb3DQEBCwUAMHAxGDAWBgNVBAMMD3d3dy53b2xm
c3NsLmNvbTEQMA4GA1UECAwHTW9udGFuYTELMAkGA1UEBhMCVVMxHzAdBgkqhkiG
9w0BCQEWEGluZm9Ad29sZnNzbC5jb20xFDASBgNVBAsMC0VuZ2luZWVyaW5nMCIY
DzIwMTgwNzMxMDAwMDAwWhgPMjAxODA4MzAwMDAwMDBaMHAxGDAWBgNVBAMMD3d3
dy53b2xmc3NsLmNvbTEQMA4GA1UECAwHTW9udGFuYTELMAkGA1UEBhMCVVMxHzAd
BgkqhkiG9w0BCQEWEGluZm9Ad29sZnNzbC5jb20xFDASBgNVBAsMC0VuZ2luZWVy
aW5nMIIBIjANBgkqhkiG9w0BAQEFAAOCAQ8AMIIBCgKCAQEAwJUI4VdB8nFtt9JF
QScBZcZFrvK8JDC4lc4vTtb2HIi8fJ/7qGd//lycUXX3isoH5zUvj+G9e8AvfKtk
qBf8yl17uuAh5XIuby6G2JVz2qwbU7lfP9cZDSVP4WNjUYsLZD+tQ7ilHFw0s64A
oGPF9n8LWWh4c6aMGKkCba/DGQEuuBDjxsxAtGmjRjNph27Euxem8+jdrXO8ey8h
tf1mUQy9VLPhbV8cvCNz0QkDiRTSELlkwyrQoZZKvOHUGlvHoMDBY3gPRDcwMpaA
MiOVoXe6E9KXc+JdJclqDcM5YKS0sGlCQgnp2Ai8MyCzWCKnquvE4eZhg8XSlt/Z
0E+t1wIDAQABMA0GCSqGSIb3DQEBCwUAA4IBAQA/G1b4aucaxFgFQNhjycK+TkGs
M/OYv9WInkAnMDxewMQzc5+0FETPBr7RWWUF/5XM3FkC9Y3hxRPtDdNE9DU3Zksg
bUGz81NDJc2PM3S3rFKcRPfpYgp76nk1pzvv+usirMQIy5wOTY2C6qN4+BikdlFz
NByRuulD5jggTvI48RlI7Nq9UMq5EYjSN3dPjdZFmBwdc7rnmHK18yjj/0yO82T8
sF4I9EpnAM3DAGFE1ogeIFHJSGxjvIcV0gsHGDXzwOuVlQ567KnwkUcQUGhQpy/3
VVGLw9wIwyi7vbNeEcIHMy8wAATLeLgfhpc58Pg754XaouYFLsfQXJ9gr3uQ
-----END CERTIFICATE-----
