Certificate:
    Data:
        Version: 1 (0x0)
        Serial Number: 4096 (0x1000)
    Signature Algorithm: sha256WithRSAEncryption
        Issuer: CN=www.wolfssl.com, ST=Montana, C=US/emailAddress=info@wolfssl.com, OU=Engineering
        Validity
            Not Before: Jul 31 00:00:00 2018 GMT
            Not After : Aug 30 00:00:00 2018 GMT
        Subject: CN=www.wolfssl.com, ST=Montana, C=US/emailAddress=info@wolfssl.com, OU=Engineering
        Subject Public Key Info:
            Public Key Algorithm: rsaEncryption
                Public-Key: (2048 bit)
                Modulus:
                    00:bf:0c:ca:2d:14:b2:1e:84:42:5b:cd:38:1f:4a:
                    f2:4d:75:10:f1:b6:35:9f:df:ca:7d:03:98:d3:ac:
                    de:03:66:ee:2a:f1:d8:b0:7d:6e:07:54:0b:10:98:
                    21:4d:80:cb:12:20:e7:cc:4f:de:45:7d:c9:72:77:
                    32:ea:ca:90:bb:69:52:10:03:2f:a8:f3:95:c5:f1:
                    8b:62:56:1b:ef:67:6f:a4:10:41:95:ad:0a:9b:e3:
                    a5:c0:b0:d2:70:76:50:30:5b:a8:e8:08:2c:7c:ed:
                    a7:a2:7a:8d:38:29:1c:ac:c7:ed:f2:7c:95:b0:95:
                    82:7d:49:5c:38:cd:77:25:ef:bd:80:75:53:94:3c:
                    3d:ca:63:5b:9f:15:b5:d3:1d:13:2f:19:d1:3c:db:
                    76:3a:cc:b8:7d:c9:e5:c2:d7:da:40:6f:d8:21:dc:
                    73:1b:42:2d:53:9c:fe:1a:fc:7d:ab:7a:36:3f:98:
                    de:84:7c:05:67:ce:6a:14:38:87:a9:f1:8c:b5:68:
                    cb:68:7f:71:20:2b:f5:a0:63:f5:56:2f:a3:26:d2:
                    b7:6f:b1:5a:17:d7:38:99:08:fe:93:58:6f:fe:c3:
                    13:49:08:16:0b:a7:4d:67:00:52:31:67:23:4e:98:
                    ed:51:45:1d:b9:04:d9:0b:ec:d8:28:b3:4b:bd:ed:
                    36:79
                Exponent: 65537 (0x10001)
    Signature Algorithm: sha256WithRSAEncryption
         b4:2f:db:12:c4:28:47:ce:52:21:44:9b:ef:e0:9e:5b:f1:4e:
         3d:85:c3:e2:4d:ed:fb:6a:e1:56:8a:c6:bc:31:66:ff:99:e3:
         f5:6b:ac:c6:e8:35:f6:ca:5d:74:ee:fd:7a:18:7f:7d:9f:76:
         19:0f:d3:72:97:58:9c:72:2a:6a:b7:43:a3:bb:1d:01:0c:46:
         b3:cb:4e:21:69:43:34:bb:3b:be:3d:33:84:f9:3c:1a:9e:4c:
         cd:e7:22:e4:e3:17:81:87:9b:f8:e9:97:12:f2:ce:e2:72:14:
         09:62:81:3b:dc:3c:1b:fc:05:3d:14:66:ce:91:12:bd:ff:e2:
         48:12:cd:a8:1c:ac:83:fd:b3:4a:d7:ce:5d:e7:35:0d:4a:c0:
         52:68:81:59:30:9b:6b:8d:4a:56:92:3f:47:2a:92:57:ab:de:
         a9:9f:fb:e5:b2:d9:a7:da:43:65:30:76:01:a9:60:e3:95:e3:
         48:a5:4a:fd:58:21:91:42:85:77:91:89:17:a8:3b:45:27:f5:
         76:4f:da:53:37:b3:6f:5f:88:61:35:af:01:58:03:40:0c:d1:
         ab:a7:37:bc:4d:0a:38:b8:74:45:4a:d0:06:98:84:4d:39:c0:
         f5:7b:7e:c8:8f:04:c1:ea:17:9c:84:55:09:c7:69:19:63:b3:
         58:99:fb:fd
-----BEGIN CERTIFICATE-----
MIIDWTCCAkECAhAAMA0GCSqGSIb3DQEBCwUAMHAxGDAWBgNVBAMMD3d3dy53b2xm
c3NsLmNvbTEQMA4GA1UECAwHTW9udGFuYTELMAkGA1UEBhMCVVMxHzAdBgkqhkiG
9w0BCQEWEGluZm9Ad29sZnNzbC5jb20xFDASBgNVBAsMC0VuZ2luZWVyaW5nMCIY
DzIwMTgwNzMxMDAwMDAwWhgPMjAxODA4MzAwMDAwMDBaMHAxGDAWBgNVBAMMD3d3
dy53b2xmc3NsLmNvbTEQMA4GA1UECAwHTW9udGFuYTELMAkGA1UEBhMCVVMxHzAd
BgkqhkiG9w0BCQEWEGluZm9Ad29sZnNzbC5jb20xFDASBgNVBAsMC0VuZ2luZWVy
aW5nMIIBIjANBgkqhkiG9w0BAQEFAAOCAQ8AMIIBCgKCAQEAvwzKLRSyHoRCW804
H0ryTXUQ8bY1n9/KfQOY06zeA2buKvHYsH1uB1QLEJghTYDLEiDnzE/eRX3Jcncy
6sqQu2lSEAMvqPOVxfGLYlYb72dvpBBBla0Km+OlwLDScHZQMFuo6AgsfO2nonqN
OCkcrMft8nyVsJWCfUlcOM13Je+9gHVTlDw9ymNbnxW10x0TLxnRPNt2Osy4fcnl
wtfaQG/YIdxzG0ItU5z+Gvx9q3o2P5jehHwFZ85qFDiHqfGMtWjLaH9xICv1oGP1
Vi+jJtK3b7FaF9c4mQj+k1hv/sMTSQgWC6dNZwBSMWcjTpjtUUUduQTZC+zYKLNL
ve02eQIDAQABMA0GCSqGSIb3DQEBCwUAA4IBAQC0L9sSxChHzlIhRJvv4J5b8U49
hcPiTe37auFWisa8MWb/meP1a6zG6DX2yl107v16GH99n3YZD9Nyl1iccipqt0Oj
ux0BDEazy04haUM0uzu+PTOE+TwankzN5yLk4xeBh5v46ZcS8s7ichQJYoE73Dwb
/AU9FGbOkRK9/+JIEs2oHKyD/bNK185d5zUNSsBSaIFZMJtrjUpWkj9HKpJXq96p
n/vlstmn2kNlMHYBqWDjleNIpUr9WCGRQoV3kYkXqDtFJ/V2T9pTN7NvX4hhNa8B
WANADNGrpze8TQo4uHRFStAGmIRNOcD1e37IjwTB6hechFUJx2kZY7NYmfv9
-----END CERTIFICATE-----
