Certificate:
    Data:
        Version: 3 (0x2)
        Serial Number:
            e3:81:4b:48:a5:70:61:70
    Signature Algorithm: ecdsa-with-SHA1
        Issuer: C=US, ST=Washington, L=Seattle, O=Foofarah, OU=Arglebargle, CN=foobarbaz/emailAddress=info@worlss.com
        Validity
            Not Before: Jul  4 04:39:21 2021 GMT
            Not After : Mar 30 04:39:21 2024 GMT
        Subject: C=US, ST=Washington, L=Seattle, O=Foofarah, OU=Arglebargle, CN=foobarbaz/emailAddress=info@worlss.com
        Subject Public Key Info:
            Public Key Algorithm: id-ecPublicKey
                Public-Key: (256 bit)
                pub: 
                    04:bb:33:ac:4c:27:50:4a:c6:4a:a5:04:c3:3c:de:
                    9f:36:db:72:2d:ce:94:ea:2b:fa:cb:20:09:39:2c:
                    16:e8:61:02:e9:af:4d:d3:02:93:9a:31:5b:97:92:
                    21:7f:f0:cf:18:da:91:11:02:34:86:e8:20:58:33:
                    0b:80:34:89:d8
                ASN1 OID: prime256v1
                NIST CURVE: P-256
        X509v3 extensions:
            X509v3 Subject Key Identifier: 
                5D:5D:26:EF:AC:7E:36:F9:9B:76:15:2B:4A:25:02:23:EF:B2:89:30
            X509v3 Authority Key Identifier: 
                keyid:5D:5D:26:EF:AC:7E:36:F9:9B:76:15:2B:4A:25:02:23:EF:B2:89:30
                DirName:/C=US/ST=Washington/L=Seattle/O=Foofarah/OU=Arglebargle/CN=foobarbaz/emailAddress=info@worlss.com
                serial:E3:81:4B:48:A5:70:61:70

            X509v3 Basic Constraints: critical
                CA:TRUE
            X509v3 Key Usage: critical
                Non Repudiation, Key Encipherment
    Signature Algorithm: ecdsa-with-SHA1
         30:45:02:21:00:c8:68:cc:ff:6f:57:4f:ec:9b:56:63:c7:44:
         e1:75:6a:41:bc:56:6e:f5:13:86:53:ce:c8:8c:ed:96:2a:71:
         c7:02:20:2e:80:3e:3a:8d:f2:d6:93:c4:85:b4:2b:25:8d:88:
         e1:29:aa:c6:fd:0b:c0:d5:50:ea:af:cb:37:28:1f:0b:15
-----BEGIN CERTIFICATE-----
MIIDKDCCAs+gAwIBAgIJAOOBS0ilcGFwMAkGByqGSM49BAEwgZExCzAJBgNVBAYT
AlVTMRMwEQYDVQQIDApXYXNoaW5ndG9uMRAwDgYDVQQHDAdTZWF0dGxlMREwDwYD
VQQKDAhGb29mYXJhaDEUMBIGA1UECwwLQXJnbGViYXJnbGUxEjAQBgNVBAMMCWZv
b2JhcmJhejEeMBwGCSqGSIb3DQEJARYPaW5mb0B3b3Jsc3MuY29tMB4XDTIxMDcw
NDA0MzkyMVoXDTI0MDMzMDA0MzkyMVowgZExCzAJBgNVBAYTAlVTMRMwEQYDVQQI
DApXYXNoaW5ndG9uMRAwDgYDVQQHDAdTZWF0dGxlMREwDwYDVQQKDAhGb29mYXJh
aDEUMBIGA1UECwwLQXJnbGViYXJnbGUxEjAQBgNVBAMMCWZvb2JhcmJhejEeMBwG
CSqGSIb3DQEJARYPaW5mb0B3b3Jsc3MuY29tMFkwEwYHKoZIzj0CAQYIKoZIzj0D
AQcDQgAEuzOsTCdQSsZKpQTDPN6fNttyLc6U6iv6yyAJOSwW6GEC6a9N0wKTmjFb
l5Ihf/DPGNqREQI0huggWDMLgDSJ2KOCAQ0wggEJMB0GA1UdDgQWBBRdXSbvrH42
+Zt2FStKJQIj77KJMDCBxgYDVR0jBIG+MIG7gBRdXSbvrH42+Zt2FStKJQIj77KJ
MKGBl6SBlDCBkTELMAkGA1UEBhMCVVMxEzARBgNVBAgMCldhc2hpbmd0b24xEDAO
BgNVBAcMB1NlYXR0bGUxETAPBgNVBAoMCEZvb2ZhcmFoMRQwEgYDVQQLDAtBcmds
ZWJhcmdsZTESMBAGA1UEAwwJZm9vYmFyYmF6MR4wHAYJKoZIhvcNAQkBFg9pbmZv
QHdvcmxzcy5jb22CCQDjgUtIpXBhcDAPBgNVHRMBAf8EBTADAQH/MA4GA1UdDwEB
/wQEAwIFYDAJBgcqhkjOPQQBA0gAMEUCIQDIaMz/b1dP7JtWY8dE4XVqQbxWbvUT
hlPOyIztlipxxwIgLoA+Oo3y1pPEhbQrJY2I4Smqxv0LwNVQ6q/LNygfCxU=
-----END CERTIFICATE-----
