Certificate:
    Data:
        Version: 3 (0x2)
        Serial Number:
            aa:06:90:4c:86:46:36:36
    Signature Algorithm: sha256WithRSAEncryption
        Issuer: C=US, ST=Montana, L=Bozeman, OU=Engineering, CN=localhost/emailAddress=info@wolfssl.com
        Validity
            Not Before: Jul  4 04:41:54 2021 GMT
            Not After : Mar 30 04:41:54 2024 GMT
        Subject: C=US, ST=Montana, L=Bozeman, OU=Engineering, CN=localhost/emailAddress=info@wolfssl.com
        Subject Public Key Info:
            Public Key Algorithm: rsaEncryption
                Public-Key: (2048 bit)
                Modulus:
                    00:c0:95:08:e1:57:41:f2:71:6d:b7:d2:45:41:27:
                    01:65:c6:45:ae:f2:bc:24:30:b8:95:ce:2f:4e:d6:
                    f6:1c:88:bc:7c:9f:fb:a8:67:7f:fe:5c:9c:51:75:
                    f7:8a:ca:07:e7:35:2f:8f:e1:bd:7b:c0:2f:7c:ab:
                    64:a8:17:fc:ca:5d:7b:ba:e0:21:e5:72:2e:6f:2e:
                    86:d8:95:73:da:ac:1b:53:b9:5f:3f:d7:19:0d:25:
                    4f:e1:63:63:51:8b:0b:64:3f:ad:43:b8:a5:1c:5c:
                    34:b3:ae:00:a0:63:c5:f6:7f:0b:59:68:78:73:a6:
                    8c:18:a9:02:6d:af:c3:19:01:2e:b8:10:e3:c6:cc:
                    40:b4:69:a3:46:33:69:87:6e:c4:bb:17:a6:f3:e8:
                    dd:ad:73:bc:7b:2f:21:b5:fd:66:51:0c:bd:54:b3:
                    e1:6d:5f:1c:bc:23:73:d1:09:03:89:14:d2:10:b9:
                    64:c3:2a:d0:a1:96:4a:bc:e1:d4:1a:5b:c7:a0:c0:
                    c1:63:78:0f:44:37:30:32:96:80:32:23:95:a1:77:
                    ba:13:d2:97:73:e2:5d:25:c9:6a:0d:c3:39:60:a4:
                    b4:b0:69:42:42:09:e9:d8:08:bc:33:20:b3:58:22:
                    a7:aa:eb:c4:e1:e6:61:83:c5:d2:96:df:d9:d0:4f:
                    ad:d7
                Exponent: 65537 (0x10001)
        X509v3 extensions:
            X509v3 Subject Alternative Name: 
                DNS:localhost
    Signature Algorithm: sha256WithRSAEncryption
         31:63:46:85:b7:4f:07:58:04:54:ed:d0:21:85:2f:8a:d1:ca:
         c5:a2:6e:7e:f8:e1:62:8d:56:84:20:fd:6e:9f:7f:e2:99:6e:
         ad:8d:89:f5:47:aa:64:97:df:94:e2:d8:db:6f:c8:81:40:14:
         f9:6b:92:24:bd:33:f7:b4:78:03:71:cf:9b:2c:37:a7:0c:2c:
         d5:bc:da:f6:3c:8f:b9:a2:70:9e:cf:7c:90:0f:d7:4b:c7:b7:
         9a:1f:44:2d:13:23:f3:ee:7e:d1:07:67:55:3e:1f:78:2b:57:
         33:50:31:4e:4c:29:f5:8a:8c:b4:f1:d6:dc:6e:f7:3b:53:32:
         ee:0d:3b:34:86:98:33:73:c4:d7:13:af:10:bc:dc:d1:36:0f:
         e2:23:28:88:e9:98:64:bb:9d:c9:40:08:29:8b:2a:a4:e0:89:
         80:16:6d:f5:43:98:70:47:d4:e1:00:a9:e5:ae:1a:92:bf:ec:
         af:12:7a:71:48:e2:ce:be:a3:0b:5b:90:33:2f:cc:2b:13:92:
         2c:d1:f9:bf:dd:43:32:1d:55:16:92:9a:5f:e1:19:84:7d:de:
         0b:a0:7b:4d:9c:30:82:f2:d3:93:12:f4:05:fe:9a:41:ed:78:
         35:c2:97:96:ea:bf:0b:56:40:9e:03:bf:6f:ee:03:db:b5:4a:
         37:f1:be:87
-----BEGIN CERTIFICATE-----
MIIDkzCCAnugAwIBAgIJAKoGkEyGRjY2MA0GCSqGSIb3DQEBCwUAMHwxCzAJBgNV
BAYTAlVTMRAwDgYDVQQIDAdNb250YW5hMRAwDgYDVQQHDAdCb3plbWFuMRQwEgYD
VQQLDAtFbmdpbmVlcmluZzESMBAGA1UEAwwJbG9jYWxob3N0MR8wHQYJKoZIhvcN
AQkBFhBpbmZvQHdvbGZzc2wuY29tMB4XDTIxMDcwNDA0NDE1NFoXDTI0MDMzMDA0
NDE1NFowfDELMAkGA1UEBhMCVVMxEDAOBgNVBAgMB01vbnRhbmExEDAOBgNVBAcM
B0JvemVtYW4xFDASBgNVBAsMC0VuZ2luZWVyaW5nMRIwEAYDVQQDDAlsb2NhbGhv
c3QxHzAdBgkqhkiG9w0BCQEWEGluZm9Ad29sZnNzbC5jb20wggEiMA0GCSqGSIb3
DQEBAQUAA4IBDwAwggEKAoIBAQDAlQjhV0HycW230kVBJwFlxkWu8rwkMLiVzi9O
1vYciLx8n/uoZ3/+XJxRdfeKygfnNS+P4b17wC98q2SoF/zKXXu64CHlci5vLobY
lXParBtTuV8/1xkNJU/hY2NRiwtkP61DuKUcXDSzrgCgY8X2fwtZaHhzpowYqQJt
r8MZAS64EOPGzEC0aaNGM2mHbsS7F6bz6N2tc7x7LyG1/WZRDL1Us+FtXxy8I3PR
CQOJFNIQuWTDKtChlkq84dQaW8egwMFjeA9ENzAyloAyI5Whd7oT0pdz4l0lyWoN
wzlgpLSwaUJCCenYCLwzILNYIqeq68Th5mGDxdKW39nQT63XAgMBAAGjGDAWMBQG
A1UdEQQNMAuCCWxvY2FsaG9zdDANBgkqhkiG9w0BAQsFAAOCAQEAMWNGhbdPB1gE
VO3QIYUvitHKxaJufvjhYo1WhCD9bp9/4plurY2J9UeqZJfflOLY22/IgUAU+WuS
JL0z97R4A3HPmyw3pwws1bza9jyPuaJwns98kA/XS8e3mh9ELRMj8+5+0QdnVT4f
eCtXM1AxTkwp9YqMtPHW3G73O1My7g07NIaYM3PE1xOvELzc0TYP4iMoiOmYZLud
yUAIKYsqpOCJgBZt9UOYcEfU4QCp5a4akr/srxJ6cUjizr6jC1uQMy/MKxOSLNH5
v91DMh1VFpKaX+EZhH3eC6B7TZwwgvLTkxL0Bf6aQe14NcKXluq/C1ZAngO/b+4D
27VKN/G+hw==
-----END CERTIFICATE-----
