Certificate:
    Data:
        Version: 3 (0x2)
        Serial Number:
            fa:ac:73:0f:2b:78:58:3e
    Signature Algorithm: sha256WithRSAEncryption
        Issuer: C=US, ST=Montana, L=Bozeman, OU=Engineering, CN=DER:30:0d:82:0b:6c:6f:63:61:6c:68:6f:73:74:00:68/emailAddress=info@wolfssl.com
        Validity
            Not Before: Jul  4 04:41:54 2021 GMT
            Not After : Mar 30 04:41:54 2024 GMT
        Subject: C=US, ST=Montana, L=Bozeman, OU=Engineering, CN=DER:30:0d:82:0b:6c:6f:63:61:6c:68:6f:73:74:00:68/emailAddress=info@wolfssl.com
        Subject Public Key Info:
            Public Key Algorithm: rsaEncryption
                Public-Key: (2048 bit)
                Modulus:
                    00:c0:95:08:e1:57:41:f2:71:6d:b7:d2:45:41:27:
                    01:65:c6:45:ae:f2:bc:24:30:b8:95:ce:2f:4e:d6:
                    f6:1c:88:bc:7c:9f:fb:a8:67:7f:fe:5c:9c:51:75:
                    f7:8a:ca:07:e7:35:2f:8f:e1:bd:7b:c0:2f:7c:ab:
                    64:a8:17:fc:ca:5d:7b:ba:e0:21:e5:72:2e:6f:2e:
                    86:d8:95:73:da:ac:1b:53:b9:5f:3f:d7:19:0d:25:
                    4f:e1:63:63:51:8b:0b:64:3f:ad:43:b8:a5:1c:5c:
                    34:b3:ae:00:a0:63:c5:f6:7f:0b:59:68:78:73:a6:
                    8c:18:a9:02:6d:af:c3:19:01:2e:b8:10:e3:c6:cc:
                    40:b4:69:a3:46:33:69:87:6e:c4:bb:17:a6:f3:e8:
                    dd:ad:73:bc:7b:2f:21:b5:fd:66:51:0c:bd:54:b3:
                    e1:6d:5f:1c:bc:23:73:d1:09:03:89:14:d2:10:b9:
                    64:c3:2a:d0:a1:96:4a:bc:e1:d4:1a:5b:c7:a0:c0:
                    c1:63:78:0f:44:37:30:32:96:80:32:23:95:a1:77:
                    ba:13:d2:97:73:e2:5d:25:c9:6a:0d:c3:39:60:a4:
                    b4:b0:69:42:42:09:e9:d8:08:bc:33:20:b3:58:22:
                    a7:aa:eb:c4:e1:e6:61:83:c5:d2:96:df:d9:d0:4f:
                    ad:d7
                Exponent: 65537 (0x10001)
    Signature Algorithm: sha256WithRSAEncryption
         42:9f:c5:a5:98:f1:a8:0d:74:14:26:a7:bf:cd:99:f0:50:4b:
         63:90:ec:1e:e9:43:18:6f:9d:37:50:9a:8a:fe:3c:da:4e:35:
         a8:b9:72:cf:a1:63:7e:12:ac:30:ba:11:9f:b7:7b:04:34:ee:
         bc:99:4f:e2:5c:27:f6:e3:8b:7c:1c:06:16:da:cb:f6:2f:7a:
         8f:c2:4c:b4:96:f7:d7:0d:71:8c:f6:15:63:c1:47:80:50:fe:
         76:31:1b:65:48:ac:f2:2f:bd:3f:8f:01:10:57:34:99:5a:3f:
         bb:98:77:0b:51:33:cc:25:12:be:04:24:ad:44:14:c5:b3:dd:
         df:01:10:53:ce:c2:57:3e:10:2b:4a:10:8a:a2:45:ae:4c:53:
         04:8a:ee:c9:b7:d5:06:b3:c4:4d:ab:ca:60:cc:91:1b:e7:f5:
         f8:69:29:d2:1c:16:ad:aa:05:37:9a:41:9b:f9:f2:04:fe:0b:
         5e:e6:0a:32:b9:02:31:a6:b2:06:92:53:ce:c2:6c:c4:84:90:
         f1:4b:32:8e:ce:23:49:77:47:2f:77:8d:83:0c:80:81:57:01:
         24:99:f9:a3:fa:31:d0:1c:4e:20:80:5a:2e:60:28:32:9c:2d:
         d6:88:4e:4b:98:3a:f0:f5:b4:36:16:cc:86:37:d9:ce:7c:07:
         66:0b:a1:be
-----BEGIN CERTIFICATE-----
MIIDyTCCArGgAwIBAgIJAPqscw8reFg+MA0GCSqGSIb3DQEBCwUAMIGjMQswCQYD
VQQGEwJVUzEQMA4GA1UECAwHTW9udGFuYTEQMA4GA1UEBwwHQm96ZW1hbjEUMBIG
A1UECwwLRW5naW5lZXJpbmcxOTA3BgNVBAMMMERFUjozMDowZDo4MjowYjo2Yzo2
Zjo2Mzo2MTo2Yzo2ODo2Zjo3Mzo3NDowMDo2ODEfMB0GCSqGSIb3DQEJARYQaW5m
b0B3b2xmc3NsLmNvbTAeFw0yMTA3MDQwNDQxNTRaFw0yNDAzMzAwNDQxNTRaMIGj
MQswCQYDVQQGEwJVUzEQMA4GA1UECAwHTW9udGFuYTEQMA4GA1UEBwwHQm96ZW1h
bjEUMBIGA1UECwwLRW5naW5lZXJpbmcxOTA3BgNVBAMMMERFUjozMDowZDo4Mjow
Yjo2Yzo2Zjo2Mzo2MTo2Yzo2ODo2Zjo3Mzo3NDowMDo2ODEfMB0GCSqGSIb3DQEJ
ARYQaW5mb0B3b2xmc3NsLmNvbTCCASIwDQYJKoZIhvcNAQEBBQADggEPADCCAQoC
ggEBAMCVCOFXQfJxbbfSRUEnAWXGRa7yvCQwuJXOL07W9hyIvHyf+6hnf/5cnFF1
94rKB+c1L4/hvXvAL3yrZKgX/Mpde7rgIeVyLm8uhtiVc9qsG1O5Xz/XGQ0lT+Fj
Y1GLC2Q/rUO4pRxcNLOuAKBjxfZ/C1loeHOmjBipAm2vwxkBLrgQ48bMQLRpo0Yz
aYduxLsXpvPo3a1zvHsvIbX9ZlEMvVSz4W1fHLwjc9EJA4kU0hC5ZMMq0KGWSrzh
1Bpbx6DAwWN4D0Q3MDKWgDIjlaF3uhPSl3PiXSXJag3DOWCktLBpQkIJ6dgIvDMg
s1gip6rrxOHmYYPF0pbf2dBPrdcCAwEAATANBgkqhkiG9w0BAQsFAAOCAQEAQp/F
pZjxqA10FCanv82Z8FBLY5DsHulDGG+dN1Caiv482k41qLlyz6FjfhKsMLoRn7d7
BDTuvJlP4lwn9uOLfBwGFtrL9i96j8JMtJb31w1xjPYVY8FHgFD+djEbZUis8i+9
P48BEFc0mVo/u5h3C1EzzCUSvgQkrUQUxbPd3wEQU87CVz4QK0oQiqJFrkxTBIru
ybfVBrPETavKYMyRG+f1+Gkp0hwWraoFN5pBm/nyBP4LXuYKMrkCMaayBpJTzsJs
xISQ8Usyjs4jSXdHL3eNgwyAgVcBJJn5o/ox0BxOIIBaLmAoMpwt1ohOS5g68PW0
NhbMhjfZznwHZguhvg==
-----END CERTIFICATE-----
