Certificate:
    Data:
        Version: 3 (0x2)
        Serial Number:
            a0:7e:9c:f9:74:e4:26:98
    Signature Algorithm: sha256WithRSAEncryption
        Issuer: C=US, ST=Montana, L=Bozeman, OU=Engineering, CN=www.nomatch.com/emailAddress=info@wolfssl.com
        Validity
            Not Before: Jul  4 04:41:54 2021 GMT
            Not After : Mar 30 04:41:54 2024 GMT
        Subject: C=US, ST=Montana, L=Bozeman, OU=Engineering, CN=www.nomatch.com/emailAddress=info@wolfssl.com
        Subject Public Key Info:
            Public Key Algorithm: rsaEncryption
                Public-Key: (2048 bit)
                Modulus:
                    00:c0:95:08:e1:57:41:f2:71:6d:b7:d2:45:41:27:
                    01:65:c6:45:ae:f2:bc:24:30:b8:95:ce:2f:4e:d6:
                    f6:1c:88:bc:7c:9f:fb:a8:67:7f:fe:5c:9c:51:75:
                    f7:8a:ca:07:e7:35:2f:8f:e1:bd:7b:c0:2f:7c:ab:
                    64:a8:17:fc:ca:5d:7b:ba:e0:21:e5:72:2e:6f:2e:
                    86:d8:95:73:da:ac:1b:53:b9:5f:3f:d7:19:0d:25:
                    4f:e1:63:63:51:8b:0b:64:3f:ad:43:b8:a5:1c:5c:
                    34:b3:ae:00:a0:63:c5:f6:7f:0b:59:68:78:73:a6:
                    8c:18:a9:02:6d:af:c3:19:01:2e:b8:10:e3:c6:cc:
                    40:b4:69:a3:46:33:69:87:6e:c4:bb:17:a6:f3:e8:
                    dd:ad:73:bc:7b:2f:21:b5:fd:66:51:0c:bd:54:b3:
                    e1:6d:5f:1c:bc:23:73:d1:09:03:89:14:d2:10:b9:
                    64:c3:2a:d0:a1:96:4a:bc:e1:d4:1a:5b:c7:a0:c0:
                    c1:63:78:0f:44:37:30:32:96:80:32:23:95:a1:77:
                    ba:13:d2:97:73:e2:5d:25:c9:6a:0d:c3:39:60:a4:
                    b4:b0:69:42:42:09:e9:d8:08:bc:33:20:b3:58:22:
                    a7:aa:eb:c4:e1:e6:61:83:c5:d2:96:df:d9:d0:4f:
                    ad:d7
                Exponent: 65537 (0x10001)
    Signature Algorithm: sha256WithRSAEncryption
         7c:1d:6b:58:4e:66:6b:36:cc:62:fb:94:73:ea:d8:7f:83:a4:
         91:a9:95:b3:80:1e:df:f2:26:e5:33:0b:93:a9:50:f1:8e:a1:
         c5:fa:b2:ea:9c:2e:2e:91:2e:9b:6f:f4:8c:be:88:55:0c:1b:
         fa:cf:f4:cc:61:f2:c4:a8:69:e3:e3:77:6e:77:01:56:a5:66:
         73:bf:ed:1c:c0:d5:f1:ff:4a:7a:4d:29:5d:fc:6c:84:75:39:
         59:c4:77:e8:8e:71:b8:41:1a:3d:10:07:a8:eb:5c:8f:a8:10:
         dc:1b:5d:6f:d6:db:dd:2a:13:b9:75:6d:54:1d:6b:26:9c:68:
         1c:2e:17:67:ff:65:2f:d2:53:04:6c:0f:72:96:79:c6:39:f2:
         4e:4c:6d:5a:24:9a:43:4e:31:4c:70:ab:4c:5c:ff:46:e5:20:
         cb:77:e0:7d:e8:d4:1f:ac:26:d3:6f:94:ea:f3:5f:f9:84:3a:
         b8:b2:fe:7b:5c:e9:4b:bc:1e:43:51:75:cd:8e:ed:61:3d:52:
         aa:9a:1d:16:f6:14:fd:df:cb:8e:18:d2:00:9e:a1:d0:5b:4a:
         e4:42:62:4b:34:b5:84:96:0f:90:fa:2c:da:c6:0a:6a:ce:94:
         7a:84:4c:09:23:1c:2e:51:e0:d6:3e:c1:40:58:5b:2a:09:1c:
         11:12:8e:35
-----BEGIN CERTIFICATE-----
MIIDhzCCAm+gAwIBAgIJAKB+nPl05CaYMA0GCSqGSIb3DQEBCwUAMIGCMQswCQYD
VQQGEwJVUzEQMA4GA1UECAwHTW9udGFuYTEQMA4GA1UEBwwHQm96ZW1hbjEUMBIG
A1UECwwLRW5naW5lZXJpbmcxGDAWBgNVBAMMD3d3dy5ub21hdGNoLmNvbTEfMB0G
CSqGSIb3DQEJARYQaW5mb0B3b2xmc3NsLmNvbTAeFw0yMTA3MDQwNDQxNTRaFw0y
NDAzMzAwNDQxNTRaMIGCMQswCQYDVQQGEwJVUzEQMA4GA1UECAwHTW9udGFuYTEQ
MA4GA1UEBwwHQm96ZW1hbjEUMBIGA1UECwwLRW5naW5lZXJpbmcxGDAWBgNVBAMM
D3d3dy5ub21hdGNoLmNvbTEfMB0GCSqGSIb3DQEJARYQaW5mb0B3b2xmc3NsLmNv
bTCCASIwDQYJKoZIhvcNAQEBBQADggEPADCCAQoCggEBAMCVCOFXQfJxbbfSRUEn
AWXGRa7yvCQwuJXOL07W9hyIvHyf+6hnf/5cnFF194rKB+c1L4/hvXvAL3yrZKgX
/Mpde7rgIeVyLm8uhtiVc9qsG1O5Xz/XGQ0lT+FjY1GLC2Q/rUO4pRxcNLOuAKBj
xfZ/C1loeHOmjBipAm2vwxkBLrgQ48bMQLRpo0YzaYduxLsXpvPo3a1zvHsvIbX9
ZlEMvVSz4W1fHLwjc9EJA4kU0hC5ZMMq0KGWSrzh1Bpbx6DAwWN4D0Q3MDKWgDIj
laF3uhPSl3PiXSXJag3DOWCktLBpQkIJ6dgIvDMgs1gip6rrxOHmYYPF0pbf2dBP
rdcCAwEAATANBgkqhkiG9w0BAQsFAAOCAQEAfB1rWE5mazbMYvuUc+rYf4OkkamV
s4Ae3/Im5TMLk6lQ8Y6hxfqy6pwuLpEum2/0jL6IVQwb+s/0zGHyxKhp4+N3bncB
VqVmc7/tHMDV8f9Kek0pXfxshHU5WcR36I5xuEEaPRAHqOtcj6gQ3Btdb9bb3SoT
uXVtVB1rJpxoHC4XZ/9lL9JTBGwPcpZ5xjnyTkxtWiSaQ04xTHCrTFz/RuUgy3fg
fejUH6wm02+U6vNf+YQ6uLL+e1zpS7weQ1F1zY7tYT1SqpodFvYU/d/LjhjSAJ6h
0FtK5EJiSzS1hJYPkPos2sYKas6UeoRMCSMcLlHg1j7BQFhbKgkcERKONQ==
-----END CERTIFICATE-----
