Certificate:
    Data:
        Version: 3 (0x2)
        Serial Number:
            a4:ce:bc:1e:e5:e7:67:21
    Signature Algorithm: sha256WithRSAEncryption
        Issuer: C=US, ST=Montana, L=Bozeman, OU=Engineering, CN=www.nomatch.com/emailAddress=info@wolfssl.com
        Validity
            Not Before: Jul  4 04:41:54 2021 GMT
            Not After : Mar 30 04:41:54 2024 GMT
        Subject: C=US, ST=Montana, L=Bozeman, OU=Engineering, CN=www.nomatch.com/emailAddress=info@wolfssl.com
        Subject Public Key Info:
            Public Key Algorithm: rsaEncryption
                Public-Key: (2048 bit)
                Modulus:
                    00:c0:95:08:e1:57:41:f2:71:6d:b7:d2:45:41:27:
                    01:65:c6:45:ae:f2:bc:24:30:b8:95:ce:2f:4e:d6:
                    f6:1c:88:bc:7c:9f:fb:a8:67:7f:fe:5c:9c:51:75:
                    f7:8a:ca:07:e7:35:2f:8f:e1:bd:7b:c0:2f:7c:ab:
                    64:a8:17:fc:ca:5d:7b:ba:e0:21:e5:72:2e:6f:2e:
                    86:d8:95:73:da:ac:1b:53:b9:5f:3f:d7:19:0d:25:
                    4f:e1:63:63:51:8b:0b:64:3f:ad:43:b8:a5:1c:5c:
                    34:b3:ae:00:a0:63:c5:f6:7f:0b:59:68:78:73:a6:
                    8c:18:a9:02:6d:af:c3:19:01:2e:b8:10:e3:c6:cc:
                    40:b4:69:a3:46:33:69:87:6e:c4:bb:17:a6:f3:e8:
                    dd:ad:73:bc:7b:2f:21:b5:fd:66:51:0c:bd:54:b3:
                    e1:6d:5f:1c:bc:23:73:d1:09:03:89:14:d2:10:b9:
                    64:c3:2a:d0:a1:96:4a:bc:e1:d4:1a:5b:c7:a0:c0:
                    c1:63:78:0f:44:37:30:32:96:80:32:23:95:a1:77:
                    ba:13:d2:97:73:e2:5d:25:c9:6a:0d:c3:39:60:a4:
                    b4:b0:69:42:42:09:e9:d8:08:bc:33:20:b3:58:22:
                    a7:aa:eb:c4:e1:e6:61:83:c5:d2:96:df:d9:d0:4f:
                    ad:d7
                Exponent: 65537 (0x10001)
        X509v3 extensions:
            X509v3 Subject Alternative Name: 
                DNS:DER:30:0d:82:0b:6c:6f:63:61:6c:68:6f:73:74:00:68
    Signature Algorithm: sha256WithRSAEncryption
         30:97:cd:98:70:da:6b:08:82:de:dd:51:64:82:85:cb:33:4e:
         e0:e7:e5:02:6a:58:df:0e:b3:10:42:f3:21:8c:76:48:81:7c:
         e7:a5:54:0f:71:80:ed:75:b1:d1:d6:dd:6c:4f:5d:d9:f3:d5:
         44:a6:0d:d9:13:f2:d9:7f:1a:39:61:e9:6d:e4:a3:ea:40:98:
         db:10:b4:4c:c3:8b:c7:e2:03:3e:ea:78:ae:f0:2f:74:39:0a:
         91:83:a3:a9:d0:5f:c4:2e:b4:9f:c7:6f:95:06:79:33:d1:48:
         54:00:20:b1:95:c8:b4:7a:22:fa:63:55:99:a0:5f:88:97:40:
         36:69:06:3c:a5:bb:55:04:c4:30:9d:44:ad:96:16:4d:18:e4:
         8f:b0:94:6e:ac:a5:15:63:80:d2:17:84:d3:50:d0:0d:64:8c:
         e4:f9:f5:ed:64:fd:fb:6c:cc:75:80:fa:e6:54:f9:01:83:6f:
         81:e1:c8:28:75:93:03:48:b0:1f:55:1c:2b:f5:bb:de:0e:8a:
         b8:e2:5e:96:61:b4:ff:98:07:92:18:39:6e:5b:21:e7:62:d6:
         f6:6a:69:6f:f7:de:79:0b:f1:bc:cd:87:70:17:c9:6a:7a:7c:
         4f:6d:fc:a1:37:dc:cd:a0:3d:1a:fe:59:68:1d:27:f8:e6:e2:
         a1:30:13:70
-----BEGIN CERTIFICATE-----
MIIDyDCCArCgAwIBAgIJAKTOvB7l52chMA0GCSqGSIb3DQEBCwUAMIGCMQswCQYD
VQQGEwJVUzEQMA4GA1UECAwHTW9udGFuYTEQMA4GA1UEBwwHQm96ZW1hbjEUMBIG
A1UECwwLRW5naW5lZXJpbmcxGDAWBgNVBAMMD3d3dy5ub21hdGNoLmNvbTEfMB0G
CSqGSIb3DQEJARYQaW5mb0B3b2xmc3NsLmNvbTAeFw0yMTA3MDQwNDQxNTRaFw0y
NDAzMzAwNDQxNTRaMIGCMQswCQYDVQQGEwJVUzEQMA4GA1UECAwHTW9udGFuYTEQ
MA4GA1UEBwwHQm96ZW1hbjEUMBIGA1UECwwLRW5naW5lZXJpbmcxGDAWBgNVBAMM
D3d3dy5ub21hdGNoLmNvbTEfMB0GCSqGSIb3DQEJARYQaW5mb0B3b2xmc3NsLmNv
bTCCASIwDQYJKoZIhvcNAQEBBQADggEPADCCAQoCggEBAMCVCOFXQfJxbbfSRUEn
AWXGRa7yvCQwuJXOL07W9hyIvHyf+6hnf/5cnFF194rKB+c1L4/hvXvAL3yrZKgX
/Mpde7rgIeVyLm8uhtiVc9qsG1O5Xz/XGQ0lT+FjY1GLC2Q/rUO4pRxcNLOuAKBj
xfZ/C1loeHOmjBipAm2vwxkBLrgQ48bMQLRpo0YzaYduxLsXpvPo3a1zvHsvIbX9
ZlEMvVSz4W1fHLwjc9EJA4kU0hC5ZMMq0KGWSrzh1Bpbx6DAwWN4D0Q3MDKWgDIj
laF3uhPSl3PiXSXJag3DOWCktLBpQkIJ6dgIvDMgs1gip6rrxOHmYYPF0pbf2dBP
rdcCAwEAAaM/MD0wOwYDVR0RBDQwMoIwREVSOjMwOjBkOjgyOjBiOjZjOjZmOjYz
OjYxOjZjOjY4OjZmOjczOjc0OjAwOjY4MA0GCSqGSIb3DQEBCwUAA4IBAQAwl82Y
cNprCILe3VFkgoXLM07g5+UCaljfDrMQQvMhjHZIgXznpVQPcYDtdbHR1t1sT13Z
89VEpg3ZE/LZfxo5Yelt5KPqQJjbELRMw4vH4gM+6niu8C90OQqRg6Op0F/ELrSf
x2+VBnkz0UhUACCxlci0eiL6Y1WZoF+Il0A2aQY8pbtVBMQwnUStlhZNGOSPsJRu
rKUVY4DSF4TTUNANZIzk+fXtZP37bMx1gPrmVPkBg2+B4cgodZMDSLAfVRwr9bve
Doq44l6WYbT/mAeSGDluWyHnYtb2amlv9955C/G8zYdwF8lqenxPbfyhN9zNoD0a
/lloHSf45uKhMBNw
-----END CERTIFICATE-----
