Certificate:
    Data:
        Version: 3 (0x2)
        Serial Number:
            bb:4f:46:49:b1:4a:2f:01
    Signature Algorithm: sha256WithRSAEncryption
        Issuer: C=US, ST=Montana, L=Bozeman, OU=Engineering, CN=localhost/emailAddress=info@wolfssl.com
        Validity
            Not Before: Jul  4 04:41:54 2021 GMT
            Not After : Mar 30 04:41:54 2024 GMT
        Subject: C=US, ST=Montana, L=Bozeman, OU=Engineering, CN=localhost/emailAddress=info@wolfssl.com
        Subject Public Key Info:
            Public Key Algorithm: rsaEncryption
                Public-Key: (2048 bit)
                Modulus:
                    00:c0:95:08:e1:57:41:f2:71:6d:b7:d2:45:41:27:
                    01:65:c6:45:ae:f2:bc:24:30:b8:95:ce:2f:4e:d6:
                    f6:1c:88:bc:7c:9f:fb:a8:67:7f:fe:5c:9c:51:75:
                    f7:8a:ca:07:e7:35:2f:8f:e1:bd:7b:c0:2f:7c:ab:
                    64:a8:17:fc:ca:5d:7b:ba:e0:21:e5:72:2e:6f:2e:
                    86:d8:95:73:da:ac:1b:53:b9:5f:3f:d7:19:0d:25:
                    4f:e1:63:63:51:8b:0b:64:3f:ad:43:b8:a5:1c:5c:
                    34:b3:ae:00:a0:63:c5:f6:7f:0b:59:68:78:73:a6:
                    8c:18:a9:02:6d:af:c3:19:01:2e:b8:10:e3:c6:cc:
                    40:b4:69:a3:46:33:69:87:6e:c4:bb:17:a6:f3:e8:
                    dd:ad:73:bc:7b:2f:21:b5:fd:66:51:0c:bd:54:b3:
                    e1:6d:5f:1c:bc:23:73:d1:09:03:89:14:d2:10:b9:
                    64:c3:2a:d0:a1:96:4a:bc:e1:d4:1a:5b:c7:a0:c0:
                    c1:63:78:0f:44:37:30:32:96:80:32:23:95:a1:77:
                    ba:13:d2:97:73:e2:5d:25:c9:6a:0d:c3:39:60:a4:
                    b4:b0:69:42:42:09:e9:d8:08:bc:33:20:b3:58:22:
                    a7:aa:eb:c4:e1:e6:61:83:c5:d2:96:df:d9:d0:4f:
                    ad:d7
                Exponent: 65537 (0x10001)
        X509v3 extensions:
            X509v3 Subject Alternative Name: 
                DNS:garbage
    Signature Algorithm: sha256WithRSAEncryption
         74:38:77:b1:44:b5:d6:9b:4d:d4:84:61:e1:bf:75:74:e9:0e:
         5c:43:04:13:f1:7c:d6:02:35:fe:e1:cc:71:2d:39:ae:aa:c6:
         9f:4f:e2:83:51:69:4e:4a:70:4d:2a:8b:ae:0d:ee:d8:40:07:
         74:69:5e:fd:fa:19:ed:33:4c:8d:fb:69:62:46:bb:da:98:0a:
         e9:f0:69:d5:ca:b1:5d:30:9d:55:0d:4e:2a:d8:6a:b9:c8:c7:
         c8:e1:fe:bb:1d:33:d7:ec:af:5f:d9:af:f2:52:a4:1f:3a:1e:
         f7:eb:b0:38:b1:05:3c:c6:cd:8c:70:db:a1:f4:81:d4:33:d9:
         03:fb:f1:4c:05:f4:06:18:f4:3d:ac:d5:82:9a:98:3b:81:65:
         59:be:6c:4a:10:81:e0:bd:1c:60:ba:ab:83:5d:22:49:99:bb:
         9d:2c:b5:9b:f6:71:6c:eb:81:c6:a0:7e:10:f4:4b:0a:20:78:
         30:e5:1b:95:72:05:4e:1f:4a:f2:1c:cb:c2:0f:cf:0b:d0:68:
         a0:a4:3a:11:be:0c:e6:0a:44:f0:3a:f6:69:01:9e:86:15:80:
         69:9e:85:14:9e:c3:13:a1:22:13:c2:3c:ee:8a:04:79:22:80:
         c2:e6:12:29:cd:e2:6a:63:52:65:b0:60:f7:0e:49:d4:85:96:
         60:09:83:7c
-----BEGIN CERTIFICATE-----
MIIDkTCCAnmgAwIBAgIJALtPRkmxSi8BMA0GCSqGSIb3DQEBCwUAMHwxCzAJBgNV
BAYTAlVTMRAwDgYDVQQIDAdNb250YW5hMRAwDgYDVQQHDAdCb3plbWFuMRQwEgYD
VQQLDAtFbmdpbmVlcmluZzESMBAGA1UEAwwJbG9jYWxob3N0MR8wHQYJKoZIhvcN
AQkBFhBpbmZvQHdvbGZzc2wuY29tMB4XDTIxMDcwNDA0NDE1NFoXDTI0MDMzMDA0
NDE1NFowfDELMAkGA1UEBhMCVVMxEDAOBgNVBAgMB01vbnRhbmExEDAOBgNVBAcM
B0JvemVtYW4xFDASBgNVBAsMC0VuZ2luZWVyaW5nMRIwEAYDVQQDDAlsb2NhbGhv
c3QxHzAdBgkqhkiG9w0BCQEWEGluZm9Ad29sZnNzbC5jb20wggEiMA0GCSqGSIb3
DQEBAQUAA4IBDwAwggEKAoIBAQDAlQjhV0HycW230kVBJwFlxkWu8rwkMLiVzi9O
1vYciLx8n/uoZ3/+XJxRdfeKygfnNS+P4b17wC98q2SoF/zKXXu64CHlci5vLobY
lXParBtTuV8/1xkNJU/hY2NRiwtkP61DuKUcXDSzrgCgY8X2fwtZaHhzpowYqQJt
r8MZAS64EOPGzEC0aaNGM2mHbsS7F6bz6N2tc7x7LyG1/WZRDL1Us+FtXxy8I3PR
CQOJFNIQuWTDKtChlkq84dQaW8egwMFjeA9ENzAyloAyI5Whd7oT0pdz4l0lyWoN
wzlgpLSwaUJCCenYCLwzILNYIqeq68Th5mGDxdKW39nQT63XAgMBAAGjFjAUMBIG
A1UdEQQLMAmCB2dhcmJhZ2UwDQYJKoZIhvcNAQELBQADggEBAHQ4d7FEtdabTdSE
YeG/dXTpDlxDBBPxfNYCNf7hzHEtOa6qxp9P4oNRaU5KcE0qi64N7thAB3RpXv36
Ge0zTI37aWJGu9qYCunwadXKsV0wnVUNTirYarnIx8jh/rsdM9fsr1/Zr/JSpB86
HvfrsDixBTzGzYxw26H0gdQz2QP78UwF9AYY9D2s1YKamDuBZVm+bEoQgeC9HGC6
q4NdIkmZu50stZv2cWzrgcagfhD0SwogeDDlG5VyBU4fSvIcy8IPzwvQaKCkOhG+
DOYKRPA69mkBnoYVgGmehRSewxOhIhPCPO6KBHkigMLmEinN4mpjUmWwYPcOSdSF
lmAJg3w=
-----END CERTIFICATE-----
