Certificate:
    Data:
        Version: 3 (0x2)
        Serial Number:
            c0:31:ad:e2:2b:53:3b:0b
    Signature Algorithm: sha256WithRSAEncryption
        Issuer: C=US, ST=Montana, L=Bozeman, OU=Engineering, CN=www.nomatch.com/emailAddress=info@wolfssl.com
        Validity
            Not Before: Jul  4 04:41:54 2021 GMT
            Not After : Mar 30 04:41:54 2024 GMT
        Subject: C=US, ST=Montana, L=Bozeman, OU=Engineering, CN=www.nomatch.com/emailAddress=info@wolfssl.com
        Subject Public Key Info:
            Public Key Algorithm: rsaEncryption
                Public-Key: (2048 bit)
                Modulus:
                    00:c0:95:08:e1:57:41:f2:71:6d:b7:d2:45:41:27:
                    01:65:c6:45:ae:f2:bc:24:30:b8:95:ce:2f:4e:d6:
                    f6:1c:88:bc:7c:9f:fb:a8:67:7f:fe:5c:9c:51:75:
                    f7:8a:ca:07:e7:35:2f:8f:e1:bd:7b:c0:2f:7c:ab:
                    64:a8:17:fc:ca:5d:7b:ba:e0:21:e5:72:2e:6f:2e:
                    86:d8:95:73:da:ac:1b:53:b9:5f:3f:d7:19:0d:25:
                    4f:e1:63:63:51:8b:0b:64:3f:ad:43:b8:a5:1c:5c:
                    34:b3:ae:00:a0:63:c5:f6:7f:0b:59:68:78:73:a6:
                    8c:18:a9:02:6d:af:c3:19:01:2e:b8:10:e3:c6:cc:
                    40:b4:69:a3:46:33:69:87:6e:c4:bb:17:a6:f3:e8:
                    dd:ad:73:bc:7b:2f:21:b5:fd:66:51:0c:bd:54:b3:
                    e1:6d:5f:1c:bc:23:73:d1:09:03:89:14:d2:10:b9:
                    64:c3:2a:d0:a1:96:4a:bc:e1:d4:1a:5b:c7:a0:c0:
                    c1:63:78:0f:44:37:30:32:96:80:32:23:95:a1:77:
                    ba:13:d2:97:73:e2:5d:25:c9:6a:0d:c3:39:60:a4:
                    b4:b0:69:42:42:09:e9:d8:08:bc:33:20:b3:58:22:
                    a7:aa:eb:c4:e1:e6:61:83:c5:d2:96:df:d9:d0:4f:
                    ad:d7
                Exponent: 65537 (0x10001)
        X509v3 extensions:
            X509v3 Subject Alternative Name: 
                DNS:localhost
    Signature Algorithm: sha256WithRSAEncryption
         73:d5:0a:46:80:dc:45:32:c0:56:c3:a9:84:81:32:74:2b:3e:
         be:b1:c7:fb:6d:d3:6d:3f:42:10:36:cf:f4:f2:e4:66:09:d8:
         d0:76:3d:d0:fd:a5:d2:04:ca:8a:96:3f:9b:3e:7d:4c:b9:51:
         ff:f8:a8:24:fa:14:26:6b:25:b5:85:4f:12:02:5d:35:d6:a0:
         76:52:f1:1b:96:1d:9c:7b:52:a7:fa:53:d4:79:91:d6:d8:15:
         9b:46:50:0c:43:bd:be:4b:15:a4:ab:be:08:c6:c6:f5:8b:88:
         fd:94:df:82:15:31:f4:ee:88:73:9c:e6:c1:2b:21:ff:cb:8c:
         82:c4:b2:36:28:45:9f:5a:f8:0f:8a:95:11:1b:ec:98:89:68:
         f4:ad:d1:ba:d0:e3:d8:aa:7e:5f:7a:8b:be:09:78:df:51:f8:
         b2:3a:a3:1b:fd:41:63:18:2b:e6:3b:46:93:e1:ea:79:f8:1d:
         fe:9b:d4:a8:19:02:70:84:c3:14:a3:71:3f:c9:f6:93:8e:8f:
         63:c4:01:ff:0c:ea:c4:a8:18:ce:64:41:0a:a7:dc:b9:2b:bf:
         d9:66:67:dd:90:a2:07:7f:3b:7f:8f:1b:2e:8a:d6:91:76:f7:
         20:41:c3:2a:9d:f1:6e:3e:59:1d:24:04:98:68:77:53:50:45:
         d3:37:28:f6
-----BEGIN CERTIFICATE-----
MIIDoTCCAomgAwIBAgIJAMAxreIrUzsLMA0GCSqGSIb3DQEBCwUAMIGCMQswCQYD
VQQGEwJVUzEQMA4GA1UECAwHTW9udGFuYTEQMA4GA1UEBwwHQm96ZW1hbjEUMBIG
A1UECwwLRW5naW5lZXJpbmcxGDAWBgNVBAMMD3d3dy5ub21hdGNoLmNvbTEfMB0G
CSqGSIb3DQEJARYQaW5mb0B3b2xmc3NsLmNvbTAeFw0yMTA3MDQwNDQxNTRaFw0y
NDAzMzAwNDQxNTRaMIGCMQswCQYDVQQGEwJVUzEQMA4GA1UECAwHTW9udGFuYTEQ
MA4GA1UEBwwHQm96ZW1hbjEUMBIGA1UECwwLRW5naW5lZXJpbmcxGDAWBgNVBAMM
D3d3dy5ub21hdGNoLmNvbTEfMB0GCSqGSIb3DQEJARYQaW5mb0B3b2xmc3NsLmNv
bTCCASIwDQYJKoZIhvcNAQEBBQADggEPADCCAQoCggEBAMCVCOFXQfJxbbfSRUEn
AWXGRa7yvCQwuJXOL07W9hyIvHyf+6hnf/5cnFF194rKB+c1L4/hvXvAL3yrZKgX
/Mpde7rgIeVyLm8uhtiVc9qsG1O5Xz/XGQ0lT+FjY1GLC2Q/rUO4pRxcNLOuAKBj
xfZ/C1loeHOmjBipAm2vwxkBLrgQ48bMQLRpo0YzaYduxLsXpvPo3a1zvHsvIbX9
ZlEMvVSz4W1fHLwjc9EJA4kU0hC5ZMMq0KGWSrzh1Bpbx6DAwWN4D0Q3MDKWgDIj
laF3uhPSl3PiXSXJag3DOWCktLBpQkIJ6dgIvDMgs1gip6rrxOHmYYPF0pbf2dBP
rdcCAwEAAaMYMBYwFAYDVR0RBA0wC4IJbG9jYWxob3N0MA0GCSqGSIb3DQEBCwUA
A4IBAQBz1QpGgNxFMsBWw6mEgTJ0Kz6+scf7bdNtP0IQNs/08uRmCdjQdj3Q/aXS
BMqKlj+bPn1MuVH/+Kgk+hQmayW1hU8SAl011qB2UvEblh2ce1Kn+lPUeZHW2BWb
RlAMQ72+SxWkq74Ixsb1i4j9lN+CFTH07ohznObBKyH/y4yCxLI2KEWfWvgPipUR
G+yYiWj0rdG60OPYqn5feou+CXjfUfiyOqMb/UFjGCvmO0aT4ep5+B3+m9SoGQJw
hMMUo3E/yfaTjo9jxAH/DOrEqBjOZEEKp9y5K7/ZZmfdkKIHfzt/jxsuitaRdvcg
QcMqnfFuPlkdJASYaHdTUEXTNyj2
-----END CERTIFICATE-----
