Certificate:
    Data:
        Version: 3 (0x2)
        Serial Number:
            d6:3d:2f:87:52:ed:42:64
    Signature Algorithm: sha256WithRSAEncryption
        Issuer: C=US, ST=Montana, L=Bozeman, OU=Engineering, CN=*localhost/emailAddress=info@wolfssl.com
        Validity
            Not Before: Jul  4 04:41:54 2021 GMT
            Not After : Mar 30 04:41:54 2024 GMT
        Subject: C=US, ST=Montana, L=Bozeman, OU=Engineering, CN=*localhost/emailAddress=info@wolfssl.com
        Subject Public Key Info:
            Public Key Algorithm: rsaEncryption
                Public-Key: (2048 bit)
                Modulus:
                    00:c0:95:08:e1:57:41:f2:71:6d:b7:d2:45:41:27:
                    01:65:c6:45:ae:f2:bc:24:30:b8:95:ce:2f:4e:d6:
                    f6:1c:88:bc:7c:9f:fb:a8:67:7f:fe:5c:9c:51:75:
                    f7:8a:ca:07:e7:35:2f:8f:e1:bd:7b:c0:2f:7c:ab:
                    64:a8:17:fc:ca:5d:7b:ba:e0:21:e5:72:2e:6f:2e:
                    86:d8:95:73:da:ac:1b:53:b9:5f:3f:d7:19:0d:25:
                    4f:e1:63:63:51:8b:0b:64:3f:ad:43:b8:a5:1c:5c:
                    34:b3:ae:00:a0:63:c5:f6:7f:0b:59:68:78:73:a6:
                    8c:18:a9:02:6d:af:c3:19:01:2e:b8:10:e3:c6:cc:
                    40:b4:69:a3:46:33:69:87:6e:c4:bb:17:a6:f3:e8:
                    dd:ad:73:bc:7b:2f:21:b5:fd:66:51:0c:bd:54:b3:
                    e1:6d:5f:1c:bc:23:73:d1:09:03:89:14:d2:10:b9:
                    64:c3:2a:d0:a1:96:4a:bc:e1:d4:1a:5b:c7:a0:c0:
                    c1:63:78:0f:44:37:30:32:96:80:32:23:95:a1:77:
                    ba:13:d2:97:73:e2:5d:25:c9:6a:0d:c3:39:60:a4:
                    b4:b0:69:42:42:09:e9:d8:08:bc:33:20:b3:58:22:
                    a7:aa:eb:c4:e1:e6:61:83:c5:d2:96:df:d9:d0:4f:
                    ad:d7
                Exponent: 65537 (0x10001)
    Signature Algorithm: sha256WithRSAEncryption
         b5:78:e5:25:f3:10:68:7c:56:87:ab:b1:61:57:26:17:39:bf:
         09:f6:39:78:8c:61:6c:5a:96:24:95:0a:53:6c:d8:12:5d:d1:
         66:92:f8:73:01:d6:9e:90:34:d6:45:90:86:77:60:04:07:a6:
         28:0c:68:11:cd:59:32:29:df:24:bc:88:2b:17:62:62:77:2d:
         7d:09:3b:0d:19:d8:54:8d:a9:bd:dd:75:34:6c:88:68:93:f8:
         a0:0c:b4:e0:af:c5:ec:b9:74:5b:d3:a5:ca:9c:d6:c4:70:fe:
         12:00:ee:fd:f5:f5:92:2d:d8:a8:c6:eb:d9:2e:36:22:f3:1b:
         70:cf:fe:b1:fe:1a:ea:d7:c8:2f:60:73:e4:c8:7b:ec:3a:0e:
         7b:e5:3f:3a:73:bf:18:c9:48:44:ea:be:2d:2b:df:14:ec:18:
         63:08:4c:86:b3:b1:ef:cb:75:d9:aa:9c:67:2c:b3:44:e4:a0:
         e1:8b:69:8b:b6:f2:e8:45:fe:90:c5:07:da:5f:5b:da:7f:18:
         7e:36:60:7c:06:5f:a5:d3:78:21:ad:f9:87:93:99:3a:2c:72:
         b1:16:d9:e8:dc:1f:b5:5f:de:eb:2c:0c:88:ef:ab:13:87:ea:
         1e:5c:d2:d4:92:52:a0:30:e5:6a:e2:26:5d:c2:ea:6f:95:df:
         b2:6b:aa:0b
-----BEGIN CERTIFICATE-----
MIIDezCCAmOgAwIBAgIJANY9L4dS7UJkMA0GCSqGSIb3DQEBCwUAMH0xCzAJBgNV
BAYTAlVTMRAwDgYDVQQIDAdNb250YW5hMRAwDgYDVQQHDAdCb3plbWFuMRQwEgYD
VQQLDAtFbmdpbmVlcmluZzETMBEGA1UEAwwKKmxvY2FsaG9zdDEfMB0GCSqGSIb3
DQEJARYQaW5mb0B3b2xmc3NsLmNvbTAeFw0yMTA3MDQwNDQxNTRaFw0yNDAzMzAw
NDQxNTRaMH0xCzAJBgNVBAYTAlVTMRAwDgYDVQQIDAdNb250YW5hMRAwDgYDVQQH
DAdCb3plbWFuMRQwEgYDVQQLDAtFbmdpbmVlcmluZzETMBEGA1UEAwwKKmxvY2Fs
aG9zdDEfMB0GCSqGSIb3DQEJARYQaW5mb0B3b2xmc3NsLmNvbTCCASIwDQYJKoZI
hvcNAQEBBQADggEPADCCAQoCggEBAMCVCOFXQfJxbbfSRUEnAWXGRa7yvCQwuJXO
L07W9hyIvHyf+6hnf/5cnFF194rKB+c1L4/hvXvAL3yrZKgX/Mpde7rgIeVyLm8u
htiVc9qsG1O5Xz/XGQ0lT+FjY1GLC2Q/rUO4pRxcNLOuAKBjxfZ/C1loeHOmjBip
Am2vwxkBLrgQ48bMQLRpo0YzaYduxLsXpvPo3a1zvHsvIbX9ZlEMvVSz4W1fHLwj
c9EJA4kU0hC5ZMMq0KGWSrzh1Bpbx6DAwWN4D0Q3MDKWgDIjlaF3uhPSl3PiXSXJ
ag3DOWCktLBpQkIJ6dgIvDMgs1gip6rrxOHmYYPF0pbf2dBPrdcCAwEAATANBgkq
hkiG9w0BAQsFAAOCAQEAtXjlJfMQaHxWh6uxYVcmFzm/CfY5eIxhbFqWJJUKU2zY
El3RZpL4cwHWnpA01kWQhndgBAemKAxoEc1ZMinfJLyIKxdiYnctfQk7DRnYVI2p
vd11NGyIaJP4oAy04K/F7Ll0W9OlypzWxHD+EgDu/fX1ki3YqMbr2S42IvMbcM/+
sf4a6tfIL2Bz5Mh77DoOe+U/OnO/GMlIROq+LSvfFOwYYwhMhrOx78t12aqcZyyz
ROSg4Ytpi7by6EX+kMUH2l9b2n8YfjZgfAZfpdN4Ia35h5OZOixysRbZ6NwftV/e
6ywMiO+rE4fqHlzS1JJSoDDlauImXcLqb5XfsmuqCw==
-----END CERTIFICATE-----
