Certificate:
    Data:
        Version: 3 (0x2)
        Serial Number:
            d0:03:6b:7b:ac:b1:e1:bf
    Signature Algorithm: sha256WithRSAEncryption
        Issuer: C=US, ST=Montana, L=Bozeman, OU=Engineering, CN=www.nomatch.com/emailAddress=info@wolfssl.com
        Validity
            Not Before: Jul  4 04:41:54 2021 GMT
            Not After : Mar 30 04:41:54 2024 GMT
        Subject: C=US, ST=Montana, L=Bozeman, OU=Engineering, CN=www.nomatch.com/emailAddress=info@wolfssl.com
        Subject Public Key Info:
            Public Key Algorithm: rsaEncryption
                Public-Key: (2048 bit)
                Modulus:
                    00:c0:95:08:e1:57:41:f2:71:6d:b7:d2:45:41:27:
                    01:65:c6:45:ae:f2:bc:24:30:b8:95:ce:2f:4e:d6:
                    f6:1c:88:bc:7c:9f:fb:a8:67:7f:fe:5c:9c:51:75:
                    f7:8a:ca:07:e7:35:2f:8f:e1:bd:7b:c0:2f:7c:ab:
                    64:a8:17:fc:ca:5d:7b:ba:e0:21:e5:72:2e:6f:2e:
                    86:d8:95:73:da:ac:1b:53:b9:5f:3f:d7:19:0d:25:
                    4f:e1:63:63:51:8b:0b:64:3f:ad:43:b8:a5:1c:5c:
                    34:b3:ae:00:a0:63:c5:f6:7f:0b:59:68:78:73:a6:
                    8c:18:a9:02:6d:af:c3:19:01:2e:b8:10:e3:c6:cc:
                    40:b4:69:a3:46:33:69:87:6e:c4:bb:17:a6:f3:e8:
                    dd:ad:73:bc:7b:2f:21:b5:fd:66:51:0c:bd:54:b3:
                    e1:6d:5f:1c:bc:23:73:d1:09:03:89:14:d2:10:b9:
                    64:c3:2a:d0:a1:96:4a:bc:e1:d4:1a:5b:c7:a0:c0:
                    c1:63:78:0f:44:37:30:32:96:80:32:23:95:a1:77:
                    ba:13:d2:97:73:e2:5d:25:c9:6a:0d:c3:39:60:a4:
                    b4:b0:69:42:42:09:e9:d8:08:bc:33:20:b3:58:22:
                    a7:aa:eb:c4:e1:e6:61:83:c5:d2:96:df:d9:d0:4f:
                    ad:d7
                Exponent: 65537 (0x10001)
        X509v3 extensions:
            X509v3 Subject Alternative Name: 
                DNS:www.nomatch.com
    Signature Algorithm: sha256WithRSAEncryption
         00:6e:69:10:83:49:a7:e9:8b:bb:f7:41:23:46:44:9e:95:e6:
         5a:1e:82:98:48:e3:c7:e0:05:2b:b2:d0:ef:51:c7:03:02:9d:
         26:55:7e:f6:4b:f0:31:bf:73:9c:94:7a:f6:cd:02:50:bb:d2:
         33:02:f0:59:b2:2d:c5:d8:3a:90:8c:dc:f2:d5:8e:93:50:b4:
         52:a6:c3:bc:7f:f0:c3:9f:e9:bb:5a:ca:ef:ca:9f:0b:af:ea:
         74:73:17:7a:32:e3:a4:2c:d1:89:da:6f:c2:77:9e:54:9e:9a:
         2b:fd:e8:1d:88:30:c8:c0:fb:7a:b6:06:79:d0:18:c8:65:39:
         07:6a:b9:29:44:b1:7f:90:3a:60:b3:80:50:68:e4:a7:d3:0e:
         a6:fa:c1:8b:49:6e:d2:91:52:d5:58:de:51:d8:10:09:02:c6:
         f3:c9:f0:e3:29:76:86:f3:71:95:22:cb:9f:09:ea:6f:0f:54:
         41:ac:c1:2a:b4:fa:4a:2b:95:80:b3:95:16:4a:75:27:53:f8:
         88:37:cb:90:9f:9c:ac:2a:f9:6c:f3:e0:ed:63:58:3a:00:aa:
         d3:3d:53:0d:60:b0:21:c8:96:3c:7f:22:b9:2b:05:d3:4e:4c:
         1d:77:c7:4b:91:09:e9:c0:3f:1e:64:fb:1c:06:a4:c5:9e:f3:
         ae:38:9e:f3
-----BEGIN CERTIFICATE-----
MIIDpzCCAo+gAwIBAgIJANADa3usseG/MA0GCSqGSIb3DQEBCwUAMIGCMQswCQYD
VQQGEwJVUzEQMA4GA1UECAwHTW9udGFuYTEQMA4GA1UEBwwHQm96ZW1hbjEUMBIG
A1UECwwLRW5naW5lZXJpbmcxGDAWBgNVBAMMD3d3dy5ub21hdGNoLmNvbTEfMB0G
CSqGSIb3DQEJARYQaW5mb0B3b2xmc3NsLmNvbTAeFw0yMTA3MDQwNDQxNTRaFw0y
NDAzMzAwNDQxNTRaMIGCMQswCQYDVQQGEwJVUzEQMA4GA1UECAwHTW9udGFuYTEQ
MA4GA1UEBwwHQm96ZW1hbjEUMBIGA1UECwwLRW5naW5lZXJpbmcxGDAWBgNVBAMM
D3d3dy5ub21hdGNoLmNvbTEfMB0GCSqGSIb3DQEJARYQaW5mb0B3b2xmc3NsLmNv
bTCCASIwDQYJKoZIhvcNAQEBBQADggEPADCCAQoCggEBAMCVCOFXQfJxbbfSRUEn
AWXGRa7yvCQwuJXOL07W9hyIvHyf+6hnf/5cnFF194rKB+c1L4/hvXvAL3yrZKgX
/Mpde7rgIeVyLm8uhtiVc9qsG1O5Xz/XGQ0lT+FjY1GLC2Q/rUO4pRxcNLOuAKBj
xfZ/C1loeHOmjBipAm2vwxkBLrgQ48bMQLRpo0YzaYduxLsXpvPo3a1zvHsvIbX9
ZlEMvVSz4W1fHLwjc9EJA4kU0hC5ZMMq0KGWSrzh1Bpbx6DAwWN4D0Q3MDKWgDIj
laF3uhPSl3PiXSXJag3DOWCktLBpQkIJ6dgIvDMgs1gip6rrxOHmYYPF0pbf2dBP
rdcCAwEAAaMeMBwwGgYDVR0RBBMwEYIPd3d3Lm5vbWF0Y2guY29tMA0GCSqGSIb3
DQEBCwUAA4IBAQAAbmkQg0mn6Yu790EjRkSeleZaHoKYSOPH4AUrstDvUccDAp0m
VX72S/Axv3OclHr2zQJQu9IzAvBZsi3F2DqQjNzy1Y6TULRSpsO8f/DDn+m7Wsrv
yp8Lr+p0cxd6MuOkLNGJ2m/Cd55Unpor/egdiDDIwPt6tgZ50BjIZTkHarkpRLF/
kDpgs4BQaOSn0w6m+sGLSW7SkVLVWN5R2BAJAsbzyfDjKXaG83GVIsufCepvD1RB
rMEqtPpKK5WAs5UWSnUnU/iIN8uQn5ysKvls8+DtY1g6AKrTPVMNYLAhyJY8fyK5
KwXTTkwdd8dLkQnpwD8eZPscBqTFnvOuOJ7z
-----END CERTIFICATE-----
