Certificate:
    Data:
        Version: 3 (0x2)
        Serial Number:
            8a:65:e6:e4:84:bf:ce:17
    Signature Algorithm: sha256WithRSAEncryption
        Issuer: C=US, ST=Montana, L=Bozeman, OU=Engineering, CN=www.nomatch.com/emailAddress=info@wolfssl.com
        Validity
            Not Before: Jul  4 04:41:54 2021 GMT
            Not After : Mar 30 04:41:54 2024 GMT
        Subject: C=US, ST=Montana, L=Bozeman, OU=Engineering, CN=www.nomatch.com/emailAddress=info@wolfssl.com
        Subject Public Key Info:
            Public Key Algorithm: rsaEncryption
                Public-Key: (2048 bit)
                Modulus:
                    00:c0:95:08:e1:57:41:f2:71:6d:b7:d2:45:41:27:
                    01:65:c6:45:ae:f2:bc:24:30:b8:95:ce:2f:4e:d6:
                    f6:1c:88:bc:7c:9f:fb:a8:67:7f:fe:5c:9c:51:75:
                    f7:8a:ca:07:e7:35:2f:8f:e1:bd:7b:c0:2f:7c:ab:
                    64:a8:17:fc:ca:5d:7b:ba:e0:21:e5:72:2e:6f:2e:
                    86:d8:95:73:da:ac:1b:53:b9:5f:3f:d7:19:0d:25:
                    4f:e1:63:63:51:8b:0b:64:3f:ad:43:b8:a5:1c:5c:
                    34:b3:ae:00:a0:63:c5:f6:7f:0b:59:68:78:73:a6:
                    8c:18:a9:02:6d:af:c3:19:01:2e:b8:10:e3:c6:cc:
                    40:b4:69:a3:46:33:69:87:6e:c4:bb:17:a6:f3:e8:
                    dd:ad:73:bc:7b:2f:21:b5:fd:66:51:0c:bd:54:b3:
                    e1:6d:5f:1c:bc:23:73:d1:09:03:89:14:d2:10:b9:
                    64:c3:2a:d0:a1:96:4a:bc:e1:d4:1a:5b:c7:a0:c0:
                    c1:63:78:0f:44:37:30:32:96:80:32:23:95:a1:77:
                    ba:13:d2:97:73:e2:5d:25:c9:6a:0d:c3:39:60:a4:
                    b4:b0:69:42:42:09:e9:d8:08:bc:33:20:b3:58:22:
                    a7:aa:eb:c4:e1:e6:61:83:c5:d2:96:df:d9:d0:4f:
                    ad:d7
                Exponent: 65537 (0x10001)
        X509v3 extensions:
            X509v3 Subject Alternative Name: 
                DNS:*localhost
    Signature Algorithm: sha256WithRSAEncryption
         66:07:65:15:a4:54:2b:7d:59:4f:c6:b5:7d:d6:b9:b3:31:20:
         ed:ab:75:6e:b1:9e:72:45:ed:46:a5:1a:16:a0:04:f0:49:e4:
         2c:8e:12:5b:76:9b:4c:41:5c:db:fe:63:e1:a8:32:8a:d7:7d:
         0d:87:f0:1e:bb:06:fe:c2:a3:8b:4d:24:18:3d:ca:50:ea:b5:
         fd:9b:bc:17:f6:46:cc:31:78:68:5a:36:54:05:3d:3a:cf:a0:
         4d:a6:fe:57:3c:bc:c4:26:25:fe:e0:ef:47:71:8c:60:cc:4f:
         c3:e8:f3:f5:e9:be:44:42:b8:93:97:12:64:8e:85:aa:0b:46:
         0a:45:ac:97:e8:e2:09:26:07:ab:f5:a6:b9:d7:a6:12:4b:c2:
         7e:d9:31:f2:2d:76:57:76:28:9f:53:a8:57:a6:fa:14:29:a2:
         02:bf:3a:52:ff:22:ae:60:f6:09:ba:c5:bd:9e:3b:79:35:b9:
         34:68:09:b9:25:2b:cd:31:82:dd:96:89:6b:26:46:48:f4:7e:
         5c:78:00:fc:e8:a9:bb:65:1c:57:e3:14:f9:27:e8:2d:72:e1:
         d7:c6:6a:ae:7f:47:18:f8:68:ec:47:01:ae:24:57:9d:91:9d:
         59:f0:75:aa:7c:b3:a9:b3:38:ac:67:bb:83:13:34:78:1d:bf:
         39:f6:6b:2f
-----BEGIN CERTIFICATE-----
MIIDojCCAoqgAwIBAgIJAIpl5uSEv84XMA0GCSqGSIb3DQEBCwUAMIGCMQswCQYD
VQQGEwJVUzEQMA4GA1UECAwHTW9udGFuYTEQMA4GA1UEBwwHQm96ZW1hbjEUMBIG
A1UECwwLRW5naW5lZXJpbmcxGDAWBgNVBAMMD3d3dy5ub21hdGNoLmNvbTEfMB0G
CSqGSIb3DQEJARYQaW5mb0B3b2xmc3NsLmNvbTAeFw0yMTA3MDQwNDQxNTRaFw0y
NDAzMzAwNDQxNTRaMIGCMQswCQYDVQQGEwJVUzEQMA4GA1UECAwHTW9udGFuYTEQ
MA4GA1UEBwwHQm96ZW1hbjEUMBIGA1UECwwLRW5naW5lZXJpbmcxGDAWBgNVBAMM
D3d3dy5ub21hdGNoLmNvbTEfMB0GCSqGSIb3DQEJARYQaW5mb0B3b2xmc3NsLmNv
bTCCASIwDQYJKoZIhvcNAQEBBQADggEPADCCAQoCggEBAMCVCOFXQfJxbbfSRUEn
AWXGRa7yvCQwuJXOL07W9hyIvHyf+6hnf/5cnFF194rKB+c1L4/hvXvAL3yrZKgX
/Mpde7rgIeVyLm8uhtiVc9qsG1O5Xz/XGQ0lT+FjY1GLC2Q/rUO4pRxcNLOuAKBj
xfZ/C1loeHOmjBipAm2vwxkBLrgQ48bMQLRpo0YzaYduxLsXpvPo3a1zvHsvIbX9
ZlEMvVSz4W1fHLwjc9EJA4kU0hC5ZMMq0KGWSrzh1Bpbx6DAwWN4D0Q3MDKWgDIj
laF3uhPSl3PiXSXJag3DOWCktLBpQkIJ6dgIvDMgs1gip6rrxOHmYYPF0pbf2dBP
rdcCAwEAAaMZMBcwFQYDVR0RBA4wDIIKKmxvY2FsaG9zdDANBgkqhkiG9w0BAQsF
AAOCAQEAZgdlFaRUK31ZT8a1fda5szEg7at1brGeckXtRqUaFqAE8EnkLI4SW3ab
TEFc2/5j4agyitd9DYfwHrsG/sKji00kGD3KUOq1/Zu8F/ZGzDF4aFo2VAU9Os+g
Tab+Vzy8xCYl/uDvR3GMYMxPw+jz9em+REK4k5cSZI6FqgtGCkWsl+jiCSYHq/Wm
udemEkvCftkx8i12V3Yon1OoV6b6FCmiAr86Uv8irmD2CbrFvZ47eTW5NGgJuSUr
zTGC3ZaJayZGSPR+XHgA/Oipu2UcV+MU+SfoLXLh18Zqrn9HGPho7EcBriRXnZGd
WfB1qnyzqbM4rGe7gxM0eB2/OfZrLw==
-----END CERTIFICATE-----
