Certificate:
    Data:
        Version: 3 (0x2)
        Serial Number:
            da:e1:2c:80:69:ac:1c:08
    Signature Algorithm: sha256WithRSAEncryption
        Issuer: C=US, ST=Montana, L=Bozeman, OU=Engineering, CN=localhost/emailAddress=info@wolfssl.com
        Validity
            Not Before: Jul  4 04:41:54 2021 GMT
            Not After : Mar 30 04:41:54 2024 GMT
        Subject: C=US, ST=Montana, L=Bozeman, OU=Engineering, CN=localhost/emailAddress=info@wolfssl.com
        Subject Public Key Info:
            Public Key Algorithm: rsaEncryption
                Public-Key: (2048 bit)
                Modulus:
                    00:c0:95:08:e1:57:41:f2:71:6d:b7:d2:45:41:27:
                    01:65:c6:45:ae:f2:bc:24:30:b8:95:ce:2f:4e:d6:
                    f6:1c:88:bc:7c:9f:fb:a8:67:7f:fe:5c:9c:51:75:
                    f7:8a:ca:07:e7:35:2f:8f:e1:bd:7b:c0:2f:7c:ab:
                    64:a8:17:fc:ca:5d:7b:ba:e0:21:e5:72:2e:6f:2e:
                    86:d8:95:73:da:ac:1b:53:b9:5f:3f:d7:19:0d:25:
                    4f:e1:63:63:51:8b:0b:64:3f:ad:43:b8:a5:1c:5c:
                    34:b3:ae:00:a0:63:c5:f6:7f:0b:59:68:78:73:a6:
                    8c:18:a9:02:6d:af:c3:19:01:2e:b8:10:e3:c6:cc:
                    40:b4:69:a3:46:33:69:87:6e:c4:bb:17:a6:f3:e8:
                    dd:ad:73:bc:7b:2f:21:b5:fd:66:51:0c:bd:54:b3:
                    e1:6d:5f:1c:bc:23:73:d1:09:03:89:14:d2:10:b9:
                    64:c3:2a:d0:a1:96:4a:bc:e1:d4:1a:5b:c7:a0:c0:
                    c1:63:78:0f:44:37:30:32:96:80:32:23:95:a1:77:
                    ba:13:d2:97:73:e2:5d:25:c9:6a:0d:c3:39:60:a4:
                    b4:b0:69:42:42:09:e9:d8:08:bc:33:20:b3:58:22:
                    a7:aa:eb:c4:e1:e6:61:83:c5:d2:96:df:d9:d0:4f:
                    ad:d7
                Exponent: 65537 (0x10001)
    Signature Algorithm: sha256WithRSAEncryption
         a3:ea:26:1c:10:94:22:f3:c0:bc:26:48:85:cf:8e:86:70:6d:
         51:64:eb:4c:36:d7:eb:b3:a3:ea:d5:a5:ad:7d:8d:a0:2d:0f:
         d8:bf:c6:9d:b3:26:d7:69:1e:0b:ed:10:23:1e:02:0b:6b:79:
         8e:34:f4:0c:1a:6e:a0:b4:c7:5e:9b:f8:bd:5a:d1:a4:4f:aa:
         8a:f0:cb:44:e2:a8:7f:ce:f7:ff:45:4e:49:bf:a7:c0:3b:91:
         b1:c0:ea:08:86:07:06:d4:d6:f8:46:17:be:7f:3b:01:c9:93:
         d3:78:23:0a:5d:2e:b8:78:45:25:d1:e9:07:90:f0:a4:85:28:
         28:da:2f:a2:39:af:bd:4e:4c:06:30:c1:59:2e:62:10:7d:84:
         e5:25:cb:7e:50:36:44:20:19:a7:e6:4b:59:fb:fd:36:b8:35:
         6f:fa:77:02:f5:98:de:95:a8:a3:92:b4:ca:37:1d:c6:e0:15:
         f0:b8:95:14:11:37:a6:d3:ff:ed:da:97:15:4b:d5:a7:1d:87:
         33:63:a3:09:5c:d5:cd:65:36:86:35:47:b0:6d:3f:43:64:d9:
         a0:39:21:cf:01:d4:5f:d8:09:e0:2c:43:dd:f3:ab:7b:a5:e0:
         23:20:7a:19:38:87:b2:a7:38:e2:14:58:6f:57:5f:94:c8:c7:
         73:22:d9:ca
-----BEGIN CERTIFICATE-----
MIIDeTCCAmGgAwIBAgIJANrhLIBprBwIMA0GCSqGSIb3DQEBCwUAMHwxCzAJBgNV
BAYTAlVTMRAwDgYDVQQIDAdNb250YW5hMRAwDgYDVQQHDAdCb3plbWFuMRQwEgYD
VQQLDAtFbmdpbmVlcmluZzESMBAGA1UEAwwJbG9jYWxob3N0MR8wHQYJKoZIhvcN
AQkBFhBpbmZvQHdvbGZzc2wuY29tMB4XDTIxMDcwNDA0NDE1NFoXDTI0MDMzMDA0
NDE1NFowfDELMAkGA1UEBhMCVVMxEDAOBgNVBAgMB01vbnRhbmExEDAOBgNVBAcM
B0JvemVtYW4xFDASBgNVBAsMC0VuZ2luZWVyaW5nMRIwEAYDVQQDDAlsb2NhbGhv
c3QxHzAdBgkqhkiG9w0BCQEWEGluZm9Ad29sZnNzbC5jb20wggEiMA0GCSqGSIb3
DQEBAQUAA4IBDwAwggEKAoIBAQDAlQjhV0HycW230kVBJwFlxkWu8rwkMLiVzi9O
1vYciLx8n/uoZ3/+XJxRdfeKygfnNS+P4b17wC98q2SoF/zKXXu64CHlci5vLobY
lXParBtTuV8/1xkNJU/hY2NRiwtkP61DuKUcXDSzrgCgY8X2fwtZaHhzpowYqQJt
r8MZAS64EOPGzEC0aaNGM2mHbsS7F6bz6N2tc7x7LyG1/WZRDL1Us+FtXxy8I3PR
CQOJFNIQuWTDKtChlkq84dQaW8egwMFjeA9ENzAyloAyI5Whd7oT0pdz4l0lyWoN
wzlgpLSwaUJCCenYCLwzILNYIqeq68Th5mGDxdKW39nQT63XAgMBAAEwDQYJKoZI
hvcNAQELBQADggEBAKPqJhwQlCLzwLwmSIXPjoZwbVFk60w21+uzo+rVpa19jaAt
D9i/xp2zJtdpHgvtECMeAgtreY409AwabqC0x16b+L1a0aRPqorwy0TiqH/O9/9F
Tkm/p8A7kbHA6giGBwbU1vhGF75/OwHJk9N4IwpdLrh4RSXR6QeQ8KSFKCjaL6I5
r71OTAYwwVkuYhB9hOUly35QNkQgGafmS1n7/Ta4NW/6dwL1mN6VqKOStMo3Hcbg
FfC4lRQRN6bT/+3alxVL1acdhzNjowlc1c1lNoY1R7BtP0Nk2aA5Ic8B1F/YCeAs
Q93zq3ul4CMgehk4h7KnOOIUWG9XX5TIx3Mi2co=
-----END CERTIFICATE-----
